Certificate:
    Data:
        Version: 3 (0x2)
        Serial Number: 268435660 (0x100000cc)
    Signature Algorithm: sha1WithRSAEncryption
        Issuer: C=DE, ST=Hessen, O=privacyidea, CN=CA001
        Validity
            Not Before: Jun 24 15:15:52 2016 GMT
            Not After : Jun 24 15:15:52 2017 GMT
        Subject: CN=Steve Test/emailAddress=steve@openssl.org
        Subject Public Key Info:
            Public Key Algorithm: rsaEncryption
                Public-Key: (2048 bit)
                Modulus:
                    00:d2:81:89:20:51:48:0f:73:f4:11:32:24:d5:1f:
                    1c:fd:5c:f5:b6:e6:c5:f0:52:81:dc:d2:af:66:4a:
                    7c:93:31:61:5c:af:d1:6d:06:70:03:60:7c:72:0c:
                    88:dd:49:cd:9e:02:6c:d2:5a:d7:53:0f:f3:da:be:
                    69:64:b5:0f:0c:00:e3:b3:50:47:a3:b3:9b:ba:13:
                    50:d6:58:5a:4b:ab:39:e0:11:ca:0a:27:67:03:78:
                    22:66:6d:92:1e:1b:5c:49:ae:e6:6b:d1:8e:3b:9d:
                    06:d3:c6:ac:4d:53:43:10:ab:e8:96:c1:87:82:97:
                    99:8f:20:d3:99:12:37:31:84:e1:8a:ff:29:03:5f:
                    22:90:3e:7f:9b:e0:20:c1:ad:dc:ae:4c:39:1a:31:
                    96:17:02:8c:b2:d9:b4:0d:20:12:9b:7d:86:54:fd:
                    33:fd:c1:2a:62:46:f8:60:96:cf:6e:01:6f:22:df:
                    13:47:e7:97:ec:05:72:23:a3:62:f8:fa:ef:ac:9c:
                    72:f0:37:cb:2f:37:cf:90:a8:27:51:86:c6:d7:78:
                    08:8f:7e:25:a2:15:70:a2:fb:1c:b6:15:5e:a0:97:
                    8b:81:4c:09:28:8a:27:3b:94:bc:71:db:5b:71:37:
                    9a:2b:16:e0:6f:b5:c9:f5:4b:4f:20:ba:65:cf:af:
                    ad:ad
                Exponent: 65537 (0x10001)
        X509v3 extensions:
            X509v3 Key Usage: 
                Digital Signature, Key Encipherment
            X509v3 Basic Constraints: 
                CA:FALSE
            Netscape Cert Type: 
                SSL Server
            Netscape Comment: 
                OpenSSL Generated Server Certificate
            X509v3 Subject Key Identifier: 
                E5:25:6D:3E:AF:0D:DD:3F:4C:F2:45:19:39:D5:14:DB:7E:9C:C0:AD
            X509v3 Authority Key Identifier: 
                keyid:F4:A7:C0:CC:91:46:AF:64:F3:91:F2:27:F8:C8:B2:6F:8A:87:32:73
                DirName:/C=DE/ST=Hessen/O=privacyidea/CN=CA001
                serial:FB:C8:EB:AC:83:CD:12:07

            X509v3 Extended Key Usage: 
                TLS Web Server Authentication
    Signature Algorithm: sha1WithRSAEncryption
         84:0b:27:94:d4:22:c5:79:bc:aa:a3:92:80:fe:7f:3c:bd:ef:
         52:e6:d3:85:aa:18:0b:07:7e:bb:4b:ac:4c:09:1b:e7:41:2c:
         61:6e:0a:78:00:05:fe:49:5f:c2:fa:3f:79:77:d4:dc:0c:25:
         b3:92:f6:d7:6c:b2:5a:9c:52:93:48:76:fa:46:4b:2b:bf:07:
         25:68:ab:0b:06:d8:89:fa:26:d6:25:75:b1:46:ea:ef:2e:57:
         5c:10:99:77:2c:d8:28:98:e2:7d:77:f9:6e:cf:e2:e2:14:ee:
         e4:c1:1f:24:54:6a:ca:b9:dc:1d:ef:59:1d:b9:c2:66:11:22:
         ca:4a:07:bc:15:f9:b2:35:5d:11:77:d9:83:50:d4:42:ef:a2:
         6c:db:e1:c5:62:97:15:0c:8b:db:ae:94:c0:8d:35:99:f8:b5:
         d8:7c:88:93:cb:42:7e:e0:51:be:3b:e4:b9:34:13:53:e5:87:
         22:4f:4b:93:39:16:2a:40:5b:9a:05:05:8f:66:8a:a3:cc:7e:
         92:4a:c8:52:cc:ab:ff:63:dd:85:9e:ee:7c:a9:05:9d:35:66:
         b1:f2:f1:08:2c:e8:00:e3:ea:e0:19:0d:b4:23:4d:67:4e:fa:
         c9:b5:fd:4f:da:26:06:a2:ce:a8:ee:34:1b:96:62:18:b1:28:
         fc:dd:eb:3f
-----BEGIN CERTIFICATE-----
MIIECTCCAvGgAwIBAgIEEAAAzDANBgkqhkiG9w0BAQUFADBEMQswCQYDVQQGEwJE
RTEPMA0GA1UECAwGSGVzc2VuMRQwEgYDVQQKDAtwcml2YWN5aWRlYTEOMAwGA1UE
AwwFQ0EwMDEwHhcNMTYwNjI0MTUxNTUyWhcNMTcwNjI0MTUxNTUyWjA3MRMwEQYD
VQQDEwpTdGV2ZSBUZXN0MSAwHgYJKoZIhvcNAQkBFhFzdGV2ZUBvcGVuc3NsLm9y
ZzCCASIwDQYJKoZIhvcNAQEBBQADggEPADCCAQoCggEBANKBiSBRSA9z9BEyJNUf
HP1c9bbmxfBSgdzSr2ZKfJMxYVyv0W0GcANgfHIMiN1JzZ4CbNJa11MP89q+aWS1
DwwA47NQR6Ozm7oTUNZYWkurOeARygonZwN4ImZtkh4bXEmu5mvRjjudBtPGrE1T
QxCr6JbBh4KXmY8g05kSNzGE4Yr/KQNfIpA+f5vgIMGt3K5MORoxlhcCjLLZtA0g
Ept9hlT9M/3BKmJG+GCWz24BbyLfE0fnl+wFciOjYvj676yccvA3yy83z5CoJ1GG
xtd4CI9+JaIVcKL7HLYVXqCXi4FMCSiKJzuUvHHbW3E3misW4G+1yfVLTyC6Zc+v
ra0CAwEAAaOCAQ4wggEKMAsGA1UdDwQEAwIFoDAJBgNVHRMEAjAAMBEGCWCGSAGG
+EIBAQQEAwIGQDAzBglghkgBhvhCAQ0EJhYkT3BlblNTTCBHZW5lcmF0ZWQgU2Vy
dmVyIENlcnRpZmljYXRlMB0GA1UdDgQWBBTlJW0+rw3dP0zyRRk51RTbfpzArTB0
BgNVHSMEbTBrgBT0p8DMkUavZPOR8if4yLJviocyc6FIpEYwRDELMAkGA1UEBhMC
REUxDzANBgNVBAgMBkhlc3NlbjEUMBIGA1UECgwLcHJpdmFjeWlkZWExDjAMBgNV
BAMMBUNBMDAxggkA+8jrrIPNEgcwEwYDVR0lBAwwCgYIKwYBBQUHAwEwDQYJKoZI
hvcNAQEFBQADggEBAIQLJ5TUIsV5vKqjkoD+fzy971Lm04WqGAsHfrtLrEwJG+dB
LGFuCngABf5JX8L6P3l31NwMJbOS9tdsslqcUpNIdvpGSyu/ByVoqwsG2In6JtYl
dbFG6u8uV1wQmXcs2CiY4n13+W7P4uIU7uTBHyRUasq53B3vWR25wmYRIspKB7wV
+bI1XRF32YNQ1ELvomzb4cVilxUMi9uulMCNNZn4tdh8iJPLQn7gUb475Lk0E1Pl
hyJPS5M5FipAW5oFBY9miqPMfpJKyFLMq/9j3YWe7nypBZ01ZrHy8Qgs6ADj6uAZ
DbQjTWdO+sm1/U/aJgaizqjuNBuWYhixKPzd6z8=
-----END CERTIFICATE-----
