Certificate:
    Data:
        Version: 3 (0x2)
        Serial Number: 268435666 (0x100000d2)
    Signature Algorithm: sha1WithRSAEncryption
        Issuer: C=DE, ST=Hessen, O=privacyidea, CN=CA001
        Validity
            Not Before: May 29 22:12:13 2016 GMT
            Not After : May 29 22:12:13 2017 GMT
        Subject: C=DE, ST=Hessen, O=privacyidea, CN=usercert
        Subject Public Key Info:
            Public Key Algorithm: rsaEncryption
                Public-Key: (2048 bit)
                Modulus:
                    00:dc:2f:d1:5f:29:97:d4:7c:c3:53:c8:30:bd:4b:
                    67:70:2c:24:6b:b8:5e:eb:21:7a:48:12:56:7c:81:
                    5c:48:75:b6:68:eb:f6:f2:98:4e:50:51:d1:7f:6c:
                    73:f3:0a:a7:ae:be:48:5e:e5:d6:e1:d9:2a:7c:32:
                    6e:4e:fd:08:f6:5a:54:49:23:73:c3:b9:07:18:d1:
                    ef:b3:ac:f8:8a:dc:94:96:a4:90:3a:8e:74:df:e6:
                    0d:37:1b:bd:5b:b7:25:1a:56:39:da:6f:91:aa:5e:
                    1c:74:f3:f9:7c:14:01:83:12:65:76:c7:bb:fe:36:
                    5b:95:e9:72:65:83:ed:3e:98:30:71:fa:87:dd:a3:
                    36:5a:30:03:2e:26:e0:61:d1:bf:02:3f:b6:06:1f:
                    4a:89:28:1c:5c:a2:ff:4e:be:94:e6:8c:e0:da:82:
                    f1:9d:29:32:48:30:73:b4:04:f6:42:1e:be:f7:e2:
                    32:32:27:3c:9d:89:2f:70:3e:85:9a:6f:5c:c5:09:
                    c0:8c:32:2f:72:22:c9:d2:95:1f:b6:ac:72:60:72:
                    b7:82:4d:6b:ce:5b:e3:00:d0:d2:2f:58:c6:e0:10:
                    e5:51:ca:4d:3b:2e:e6:7e:ab:84:d6:56:f1:93:35:
                    a0:93:64:26:81:75:2f:91:b5:16:06:38:0b:db:cc:
                    2d:07
                Exponent: 65537 (0x10001)
        X509v3 extensions:
            X509v3 Key Usage: 
                Digital Signature, Key Encipherment
            X509v3 Basic Constraints: 
                CA:FALSE
            Netscape Cert Type: 
                SSL Server
            Netscape Comment: 
                OpenSSL Generated Server Certificate
            X509v3 Subject Key Identifier: 
                FC:14:D1:F0:4B:8D:00:90:F2:F5:B8:71:9E:4E:97:C3:92:54:AD:0B
            X509v3 Authority Key Identifier: 
                keyid:F4:A7:C0:CC:91:46:AF:64:F3:91:F2:27:F8:C8:B2:6F:8A:87:32:73
                DirName:/C=DE/ST=Hessen/O=privacyidea/CN=CA001
                serial:FB:C8:EB:AC:83:CD:12:07

            X509v3 Extended Key Usage: 
                TLS Web Server Authentication
    Signature Algorithm: sha1WithRSAEncryption
         48:44:12:66:a3:e5:15:a1:b9:95:2a:99:f2:25:03:e8:15:1d:
         cc:c6:61:21:d2:65:5c:7a:45:e3:f3:93:36:5b:48:cb:20:cc:
         42:dc:f6:3e:97:e2:00:0e:e0:1f:36:df:99:2f:09:36:da:ff:
         cb:de:51:e8:de:7c:93:39:05:3a:cd:e4:a0:41:88:0c:32:24:
         d0:f8:2f:99:64:c8:db:d9:6d:45:5d:a6:60:2b:40:76:49:d2:
         66:a5:5d:a8:78:75:f4:02:17:ce:f0:91:e1:46:1d:ea:76:ca:
         ae:5f:1c:72:d3:a0:de:bc:8a:8e:3b:49:82:b6:84:c8:b0:4e:
         17:62:0e:e2:a5:70:4d:ef:b2:72:f5:6e:28:33:ae:8d:af:e6:
         61:f4:e3:c9:f1:c8:8e:9a:60:5b:bc:28:e4:a2:23:6a:0d:19:
         17:5e:63:1c:b5:34:95:65:65:11:ab:d3:f2:c6:a0:2c:d3:f8:
         f1:fb:7c:9a:c9:2e:2a:0a:0f:ad:1f:a8:a2:6b:90:59:87:cd:
         03:aa:98:98:b7:b7:88:6f:d6:c4:8e:63:9f:91:eb:68:3b:52:
         8e:6a:0e:7e:a3:fa:74:44:9f:43:14:1b:29:7f:32:13:aa:bf:
         40:e5:f2:0c:66:25:96:c6:38:d6:0c:1c:0a:ea:dd:89:e8:62:
         a1:96:ab:53
-----BEGIN CERTIFICATE-----
MIIEGTCCAwGgAwIBAgIEEAAA0jANBgkqhkiG9w0BAQUFADBEMQswCQYDVQQGEwJE
RTEPMA0GA1UECAwGSGVzc2VuMRQwEgYDVQQKDAtwcml2YWN5aWRlYTEOMAwGA1UE
AwwFQ0EwMDEwHhcNMTYwNTI5MjIxMjEzWhcNMTcwNTI5MjIxMjEzWjBHMQswCQYD
VQQGEwJERTEPMA0GA1UECAwGSGVzc2VuMRQwEgYDVQQKDAtwcml2YWN5aWRlYTER
MA8GA1UEAwwIdXNlcmNlcnQwggEiMA0GCSqGSIb3DQEBAQUAA4IBDwAwggEKAoIB
AQDcL9FfKZfUfMNTyDC9S2dwLCRruF7rIXpIElZ8gVxIdbZo6/bymE5QUdF/bHPz
Cqeuvkhe5dbh2Sp8Mm5O/Qj2WlRJI3PDuQcY0e+zrPiK3JSWpJA6jnTf5g03G71b
tyUaVjnab5GqXhx08/l8FAGDEmV2x7v+NluV6XJlg+0+mDBx+ofdozZaMAMuJuBh
0b8CP7YGH0qJKBxcov9OvpTmjODagvGdKTJIMHO0BPZCHr734jIyJzydiS9wPoWa
b1zFCcCMMi9yIsnSlR+2rHJgcreCTWvOW+MA0NIvWMbgEOVRyk07LuZ+q4TWVvGT
NaCTZCaBdS+RtRYGOAvbzC0HAgMBAAGjggEOMIIBCjALBgNVHQ8EBAMCBaAwCQYD
VR0TBAIwADARBglghkgBhvhCAQEEBAMCBkAwMwYJYIZIAYb4QgENBCYWJE9wZW5T
U0wgR2VuZXJhdGVkIFNlcnZlciBDZXJ0aWZpY2F0ZTAdBgNVHQ4EFgQU/BTR8EuN
AJDy9bhxnk6Xw5JUrQswdAYDVR0jBG0wa4AU9KfAzJFGr2TzkfIn+Miyb4qHMnOh
SKRGMEQxCzAJBgNVBAYTAkRFMQ8wDQYDVQQIDAZIZXNzZW4xFDASBgNVBAoMC3By
aXZhY3lpZGVhMQ4wDAYDVQQDDAVDQTAwMYIJAPvI66yDzRIHMBMGA1UdJQQMMAoG
CCsGAQUFBwMBMA0GCSqGSIb3DQEBBQUAA4IBAQBIRBJmo+UVobmVKpnyJQPoFR3M
xmEh0mVcekXj85M2W0jLIMxC3PY+l+IADuAfNt+ZLwk22v/L3lHo3nyTOQU6zeSg
QYgMMiTQ+C+ZZMjb2W1FXaZgK0B2SdJmpV2oeHX0AhfO8JHhRh3qdsquXxxy06De
vIqOO0mCtoTIsE4XYg7ipXBN77Jy9W4oM66Nr+Zh9OPJ8ciOmmBbvCjkoiNqDRkX
XmMctTSVZWURq9PyxqAs0/jx+3yayS4qCg+tH6iia5BZh80DqpiYt7eIb9bEjmOf
ketoO1KOag5+o/p0RJ9DFBspfzITqr9A5fIMZiWWxjjWDBwK6t2J6GKhlqtT
-----END CERTIFICATE-----
