Certificate:
    Data:
        Version: 3 (0x2)
        Serial Number: 268435657 (0x100000c9)
    Signature Algorithm: sha1WithRSAEncryption
        Issuer: C=DE, ST=Hessen, O=privacyidea, CN=CA001
        Validity
            Not Before: Jun 24 15:13:19 2016 GMT
            Not After : Jun 24 15:13:19 2017 GMT
        Subject: C=DE, ST=Hessen, O=privacyidea, CN=requester.localdomain
        Subject Public Key Info:
            Public Key Algorithm: rsaEncryption
                Public-Key: (2048 bit)
                Modulus:
                    00:cd:be:14:4f:fa:ce:01:3f:42:22:1b:1d:9c:af:
                    dd:92:d2:7f:db:6c:b7:3e:39:43:43:6b:13:03:f1:
                    05:f4:07:74:bc:76:69:28:0b:af:19:8e:d7:fc:e3:
                    cd:c6:58:f2:ca:7f:08:6d:53:fc:07:02:44:24:c6:
                    b4:34:4c:8c:04:fe:33:0e:40:e2:20:ba:02:73:5a:
                    f7:f5:4f:63:6e:cc:c6:b6:df:54:1d:37:39:7d:51:
                    36:26:5f:bd:dc:3f:a8:8b:6b:a2:ae:b6:9d:d6:21:
                    e7:df:41:b8:7a:28:2a:68:48:ca:a8:2d:ed:e1:e9:
                    46:5e:5a:72:6d:b4:84:38:87:91:fd:94:11:0b:28:
                    84:c6:c2:2f:2a:fb:01:f9:36:7a:09:75:d1:33:88:
                    3c:73:41:5b:c8:bf:94:89:70:a1:f0:c0:b9:2e:50:
                    53:1e:b1:17:64:69:f4:2d:81:e0:a9:0d:0e:32:e9:
                    ba:55:8a:85:f1:1b:6f:49:79:b4:7f:88:c3:0d:3e:
                    54:88:9b:3d:1f:38:8c:04:f3:ee:6a:63:2b:f5:c6:
                    db:b4:83:aa:c4:78:41:3a:7d:4b:e1:c8:3e:71:ca:
                    1b:61:59:ea:c6:c4:ca:32:5e:c9:e9:bf:12:29:e6:
                    c6:c3:63:fe:a0:55:da:7a:f1:60:98:4d:26:ed:fa:
                    70:2d
                Exponent: 65537 (0x10001)
        X509v3 extensions:
            X509v3 Key Usage: 
                Digital Signature, Key Encipherment
            X509v3 Basic Constraints: 
                CA:FALSE
            Netscape Cert Type: 
                SSL Server
            Netscape Comment: 
                OpenSSL Generated Server Certificate
            X509v3 Subject Key Identifier: 
                53:3F:ED:5D:09:07:B3:65:7B:AB:45:C9:24:5B:09:77:80:0A:96:ED
            X509v3 Authority Key Identifier: 
                keyid:F4:A7:C0:CC:91:46:AF:64:F3:91:F2:27:F8:C8:B2:6F:8A:87:32:73
                DirName:/C=DE/ST=Hessen/O=privacyidea/CN=CA001
                serial:FB:C8:EB:AC:83:CD:12:07

            X509v3 Extended Key Usage: 
                TLS Web Server Authentication
    Signature Algorithm: sha1WithRSAEncryption
         5d:cb:89:6f:19:0e:9d:68:da:52:4b:6a:cb:ad:10:00:c0:17:
         bc:50:d4:bf:d1:b2:20:06:db:02:5d:ae:99:0d:16:b3:aa:82:
         3b:3c:68:5d:1b:a1:0f:6d:4d:21:ea:97:33:0f:8e:73:19:77:
         2d:01:20:ce:6f:61:85:88:30:8c:f2:be:eb:84:fb:b9:a7:31:
         28:e3:9c:c1:e7:74:5a:59:21:e6:5a:02:19:4a:95:f6:1d:19:
         30:52:91:26:40:18:3e:86:7a:88:2d:21:96:8d:fe:94:d9:0f:
         6f:a5:21:67:7d:6f:a5:36:18:61:9e:63:0d:a9:41:1d:6f:64:
         70:dd:38:39:1a:4f:83:64:07:5d:0c:b0:e8:99:06:36:89:27:
         2e:99:5c:f8:f5:e0:d8:99:c1:e1:3a:1a:45:c3:c5:e2:fb:c6:
         a5:d7:af:36:d1:0a:fa:0a:20:a3:b5:e6:9b:f3:52:d7:9d:2f:
         15:08:ba:6b:b0:a7:54:7c:4b:e1:b8:03:24:19:cc:2c:e5:8e:
         32:e1:62:21:00:03:02:3c:9c:23:84:61:b6:52:ac:23:28:62:
         56:4b:ac:82:59:aa:10:49:e3:58:19:e7:ec:38:98:ba:c6:31:
         f5:07:8f:0b:d7:15:f9:46:67:b9:3d:30:8c:0e:96:59:ee:cd:
         ba:6b:b0:5e
-----BEGIN CERTIFICATE-----
MIIEJjCCAw6gAwIBAgIEEAAAyTANBgkqhkiG9w0BAQUFADBEMQswCQYDVQQGEwJE
RTEPMA0GA1UECAwGSGVzc2VuMRQwEgYDVQQKDAtwcml2YWN5aWRlYTEOMAwGA1UE
AwwFQ0EwMDEwHhcNMTYwNjI0MTUxMzE5WhcNMTcwNjI0MTUxMzE5WjBUMQswCQYD
VQQGEwJERTEPMA0GA1UECAwGSGVzc2VuMRQwEgYDVQQKDAtwcml2YWN5aWRlYTEe
MBwGA1UEAwwVcmVxdWVzdGVyLmxvY2FsZG9tYWluMIIBIjANBgkqhkiG9w0BAQEF
AAOCAQ8AMIIBCgKCAQEAzb4UT/rOAT9CIhsdnK/dktJ/22y3PjlDQ2sTA/EF9Ad0
vHZpKAuvGY7X/OPNxljyyn8IbVP8BwJEJMa0NEyMBP4zDkDiILoCc1r39U9jbszG
tt9UHTc5fVE2Jl+93D+oi2uirrad1iHn30G4eigqaEjKqC3t4elGXlpybbSEOIeR
/ZQRCyiExsIvKvsB+TZ6CXXRM4g8c0FbyL+UiXCh8MC5LlBTHrEXZGn0LYHgqQ0O
Mum6VYqF8RtvSXm0f4jDDT5UiJs9HziMBPPuamMr9cbbtIOqxHhBOn1L4cg+ccob
YVnqxsTKMl7J6b8SKebGw2P+oFXaevFgmE0m7fpwLQIDAQABo4IBDjCCAQowCwYD
VR0PBAQDAgWgMAkGA1UdEwQCMAAwEQYJYIZIAYb4QgEBBAQDAgZAMDMGCWCGSAGG
+EIBDQQmFiRPcGVuU1NMIEdlbmVyYXRlZCBTZXJ2ZXIgQ2VydGlmaWNhdGUwHQYD
VR0OBBYEFFM/7V0JB7Nle6tFySRbCXeACpbtMHQGA1UdIwRtMGuAFPSnwMyRRq9k
85HyJ/jIsm+KhzJzoUikRjBEMQswCQYDVQQGEwJERTEPMA0GA1UECAwGSGVzc2Vu
MRQwEgYDVQQKDAtwcml2YWN5aWRlYTEOMAwGA1UEAwwFQ0EwMDGCCQD7yOusg80S
BzATBgNVHSUEDDAKBggrBgEFBQcDATANBgkqhkiG9w0BAQUFAAOCAQEAXcuJbxkO
nWjaUktqy60QAMAXvFDUv9GyIAbbAl2umQ0Ws6qCOzxoXRuhD21NIeqXMw+Ocxl3
LQEgzm9hhYgwjPK+64T7uacxKOOcwed0Wlkh5loCGUqV9h0ZMFKRJkAYPoZ6iC0h
lo3+lNkPb6UhZ31vpTYYYZ5jDalBHW9kcN04ORpPg2QHXQyw6JkGNoknLplc+PXg
2JnB4ToaRcPF4vvGpdevNtEK+gogo7Xmm/NS150vFQi6a7CnVHxL4bgDJBnMLOWO
MuFiIQADAjycI4RhtlKsIyhiVkusglmqEEnjWBnn7DiYusYx9QePC9cV+UZnuT0w
jA6WWe7NumuwXg==
-----END CERTIFICATE-----
