Certificate:
    Data:
        Version: 3 (0x2)
        Serial Number: 268435658 (0x100000ca)
    Signature Algorithm: sha1WithRSAEncryption
        Issuer: C=DE, ST=Hessen, O=privacyidea, CN=CA001
        Validity
            Not Before: Jun 24 15:15:51 2016 GMT
            Not After : Jun 24 15:15:51 2017 GMT
        Subject: C=DE, ST=Hessen, O=privacyidea, CN=requester.localdomain
        Subject Public Key Info:
            Public Key Algorithm: rsaEncryption
                Public-Key: (2048 bit)
                Modulus:
                    00:cd:be:14:4f:fa:ce:01:3f:42:22:1b:1d:9c:af:
                    dd:92:d2:7f:db:6c:b7:3e:39:43:43:6b:13:03:f1:
                    05:f4:07:74:bc:76:69:28:0b:af:19:8e:d7:fc:e3:
                    cd:c6:58:f2:ca:7f:08:6d:53:fc:07:02:44:24:c6:
                    b4:34:4c:8c:04:fe:33:0e:40:e2:20:ba:02:73:5a:
                    f7:f5:4f:63:6e:cc:c6:b6:df:54:1d:37:39:7d:51:
                    36:26:5f:bd:dc:3f:a8:8b:6b:a2:ae:b6:9d:d6:21:
                    e7:df:41:b8:7a:28:2a:68:48:ca:a8:2d:ed:e1:e9:
                    46:5e:5a:72:6d:b4:84:38:87:91:fd:94:11:0b:28:
                    84:c6:c2:2f:2a:fb:01:f9:36:7a:09:75:d1:33:88:
                    3c:73:41:5b:c8:bf:94:89:70:a1:f0:c0:b9:2e:50:
                    53:1e:b1:17:64:69:f4:2d:81:e0:a9:0d:0e:32:e9:
                    ba:55:8a:85:f1:1b:6f:49:79:b4:7f:88:c3:0d:3e:
                    54:88:9b:3d:1f:38:8c:04:f3:ee:6a:63:2b:f5:c6:
                    db:b4:83:aa:c4:78:41:3a:7d:4b:e1:c8:3e:71:ca:
                    1b:61:59:ea:c6:c4:ca:32:5e:c9:e9:bf:12:29:e6:
                    c6:c3:63:fe:a0:55:da:7a:f1:60:98:4d:26:ed:fa:
                    70:2d
                Exponent: 65537 (0x10001)
        X509v3 extensions:
            X509v3 Key Usage: 
                Digital Signature, Key Encipherment
            X509v3 Basic Constraints: 
                CA:FALSE
            Netscape Cert Type: 
                SSL Server
            Netscape Comment: 
                OpenSSL Generated Server Certificate
            X509v3 Subject Key Identifier: 
                53:3F:ED:5D:09:07:B3:65:7B:AB:45:C9:24:5B:09:77:80:0A:96:ED
            X509v3 Authority Key Identifier: 
                keyid:F4:A7:C0:CC:91:46:AF:64:F3:91:F2:27:F8:C8:B2:6F:8A:87:32:73
                DirName:/C=DE/ST=Hessen/O=privacyidea/CN=CA001
                serial:FB:C8:EB:AC:83:CD:12:07

            X509v3 Extended Key Usage: 
                TLS Web Server Authentication
    Signature Algorithm: sha1WithRSAEncryption
         13:25:7f:57:84:50:26:d4:76:84:cb:15:43:63:77:5f:48:1a:
         29:70:63:c4:88:6c:77:0c:84:3a:3a:5d:23:7e:47:5f:81:f5:
         f6:e0:90:07:4f:00:fb:a5:cb:23:c2:b5:86:c1:8b:bb:29:31:
         5b:84:41:4e:af:8f:28:28:62:9f:74:5e:fa:9f:5e:4d:cf:7b:
         0b:fb:06:47:b1:97:8b:5e:92:72:a6:3a:6c:82:ec:c3:a7:ab:
         2c:9a:f1:b1:c7:39:73:7c:cf:66:5f:72:8d:d5:35:d3:86:ac:
         f2:61:9a:a4:e8:d9:a1:d3:e3:26:ff:e4:12:ff:00:2e:a4:ff:
         17:35:3e:3b:d3:e7:60:22:b8:2a:6b:ad:46:8b:73:85:1c:bd:
         e3:6d:f2:87:9b:a6:9b:43:4a:2c:40:47:a0:76:cc:06:b3:34:
         15:92:c1:d3:0f:72:b1:32:b8:a2:f8:d7:b3:f6:02:ec:0c:6d:
         67:b0:1a:00:4e:45:2b:12:f5:6a:16:76:4d:bd:05:ab:5c:58:
         0a:dd:c2:1f:49:d3:87:a1:6d:a9:12:c1:7e:25:18:75:46:64:
         29:7c:84:52:35:06:6f:f7:00:56:31:ae:db:77:2e:50:40:bf:
         7b:25:8d:f9:3a:c1:27:ed:21:73:48:74:f7:06:c9:0a:80:07:
         9b:73:e9:95
-----BEGIN CERTIFICATE-----
MIIEJjCCAw6gAwIBAgIEEAAAyjANBgkqhkiG9w0BAQUFADBEMQswCQYDVQQGEwJE
RTEPMA0GA1UECAwGSGVzc2VuMRQwEgYDVQQKDAtwcml2YWN5aWRlYTEOMAwGA1UE
AwwFQ0EwMDEwHhcNMTYwNjI0MTUxNTUxWhcNMTcwNjI0MTUxNTUxWjBUMQswCQYD
VQQGEwJERTEPMA0GA1UECAwGSGVzc2VuMRQwEgYDVQQKDAtwcml2YWN5aWRlYTEe
MBwGA1UEAwwVcmVxdWVzdGVyLmxvY2FsZG9tYWluMIIBIjANBgkqhkiG9w0BAQEF
AAOCAQ8AMIIBCgKCAQEAzb4UT/rOAT9CIhsdnK/dktJ/22y3PjlDQ2sTA/EF9Ad0
vHZpKAuvGY7X/OPNxljyyn8IbVP8BwJEJMa0NEyMBP4zDkDiILoCc1r39U9jbszG
tt9UHTc5fVE2Jl+93D+oi2uirrad1iHn30G4eigqaEjKqC3t4elGXlpybbSEOIeR
/ZQRCyiExsIvKvsB+TZ6CXXRM4g8c0FbyL+UiXCh8MC5LlBTHrEXZGn0LYHgqQ0O
Mum6VYqF8RtvSXm0f4jDDT5UiJs9HziMBPPuamMr9cbbtIOqxHhBOn1L4cg+ccob
YVnqxsTKMl7J6b8SKebGw2P+oFXaevFgmE0m7fpwLQIDAQABo4IBDjCCAQowCwYD
VR0PBAQDAgWgMAkGA1UdEwQCMAAwEQYJYIZIAYb4QgEBBAQDAgZAMDMGCWCGSAGG
+EIBDQQmFiRPcGVuU1NMIEdlbmVyYXRlZCBTZXJ2ZXIgQ2VydGlmaWNhdGUwHQYD
VR0OBBYEFFM/7V0JB7Nle6tFySRbCXeACpbtMHQGA1UdIwRtMGuAFPSnwMyRRq9k
85HyJ/jIsm+KhzJzoUikRjBEMQswCQYDVQQGEwJERTEPMA0GA1UECAwGSGVzc2Vu
MRQwEgYDVQQKDAtwcml2YWN5aWRlYTEOMAwGA1UEAwwFQ0EwMDGCCQD7yOusg80S
BzATBgNVHSUEDDAKBggrBgEFBQcDATANBgkqhkiG9w0BAQUFAAOCAQEAEyV/V4RQ
JtR2hMsVQ2N3X0gaKXBjxIhsdwyEOjpdI35HX4H19uCQB08A+6XLI8K1hsGLuykx
W4RBTq+PKChin3Re+p9eTc97C/sGR7GXi16ScqY6bILsw6erLJrxscc5c3zPZl9y
jdU104as8mGapOjZodPjJv/kEv8ALqT/FzU+O9PnYCK4KmutRotzhRy9423yh5um
m0NKLEBHoHbMBrM0FZLB0w9ysTK4ovjXs/YC7AxtZ7AaAE5FKxL1ahZ2Tb0Fq1xY
Ct3CH0nTh6FtqRLBfiUYdUZkKXyEUjUGb/cAVjGu23cuUEC/eyWN+TrBJ+0hc0h0
9wbJCoAHm3PplQ==
-----END CERTIFICATE-----
