Certificate:
    Data:
        Version: 3 (0x2)
        Serial Number: 268435667 (0x100000d3)
    Signature Algorithm: sha1WithRSAEncryption
        Issuer: C=DE, ST=Hessen, O=privacyidea, CN=CA001
        Validity
            Not Before: May 29 22:12:13 2016 GMT
            Not After : May 29 22:12:13 2017 GMT
        Subject: CN=Steve Test/emailAddress=steve@openssl.org
        Subject Public Key Info:
            Public Key Algorithm: rsaEncryption
                Public-Key: (2048 bit)
                Modulus:
                    00:d2:81:89:20:51:48:0f:73:f4:11:32:24:d5:1f:
                    1c:fd:5c:f5:b6:e6:c5:f0:52:81:dc:d2:af:66:4a:
                    7c:93:31:61:5c:af:d1:6d:06:70:03:60:7c:72:0c:
                    88:dd:49:cd:9e:02:6c:d2:5a:d7:53:0f:f3:da:be:
                    69:64:b5:0f:0c:00:e3:b3:50:47:a3:b3:9b:ba:13:
                    50:d6:58:5a:4b:ab:39:e0:11:ca:0a:27:67:03:78:
                    22:66:6d:92:1e:1b:5c:49:ae:e6:6b:d1:8e:3b:9d:
                    06:d3:c6:ac:4d:53:43:10:ab:e8:96:c1:87:82:97:
                    99:8f:20:d3:99:12:37:31:84:e1:8a:ff:29:03:5f:
                    22:90:3e:7f:9b:e0:20:c1:ad:dc:ae:4c:39:1a:31:
                    96:17:02:8c:b2:d9:b4:0d:20:12:9b:7d:86:54:fd:
                    33:fd:c1:2a:62:46:f8:60:96:cf:6e:01:6f:22:df:
                    13:47:e7:97:ec:05:72:23:a3:62:f8:fa:ef:ac:9c:
                    72:f0:37:cb:2f:37:cf:90:a8:27:51:86:c6:d7:78:
                    08:8f:7e:25:a2:15:70:a2:fb:1c:b6:15:5e:a0:97:
                    8b:81:4c:09:28:8a:27:3b:94:bc:71:db:5b:71:37:
                    9a:2b:16:e0:6f:b5:c9:f5:4b:4f:20:ba:65:cf:af:
                    ad:ad
                Exponent: 65537 (0x10001)
        X509v3 extensions:
            X509v3 Key Usage: 
                Digital Signature, Key Encipherment
            X509v3 Basic Constraints: 
                CA:FALSE
            Netscape Cert Type: 
                SSL Server
            Netscape Comment: 
                OpenSSL Generated Server Certificate
            X509v3 Subject Key Identifier: 
                E5:25:6D:3E:AF:0D:DD:3F:4C:F2:45:19:39:D5:14:DB:7E:9C:C0:AD
            X509v3 Authority Key Identifier: 
                keyid:F4:A7:C0:CC:91:46:AF:64:F3:91:F2:27:F8:C8:B2:6F:8A:87:32:73
                DirName:/C=DE/ST=Hessen/O=privacyidea/CN=CA001
                serial:FB:C8:EB:AC:83:CD:12:07

            X509v3 Extended Key Usage: 
                TLS Web Server Authentication
    Signature Algorithm: sha1WithRSAEncryption
         4d:be:d9:b4:0d:0c:40:78:24:fa:9a:8e:f4:a2:02:5f:5a:60:
         d3:85:06:23:8e:57:28:f7:6f:fd:28:ad:1e:a9:b0:8b:f5:84:
         bc:64:72:07:a4:4a:85:97:b4:3d:a2:ca:ef:6a:6b:33:b6:6e:
         54:2b:a0:a8:b8:44:fc:8e:5f:29:e7:7b:69:b1:0b:2b:27:b4:
         56:d3:d9:48:03:52:a3:d1:a0:7f:18:c3:09:a1:67:b1:1a:3f:
         16:86:13:8b:77:5d:bb:92:19:94:32:51:97:a6:6b:51:dd:c4:
         45:88:b3:b7:1d:32:d8:23:54:c7:51:13:0d:c2:cf:ef:84:97:
         d3:e2:f2:12:bc:66:24:1e:48:19:b4:4e:78:25:98:68:5d:12:
         34:13:b7:a3:73:a1:11:78:06:6e:88:51:ca:94:ae:a9:9f:e8:
         18:81:96:82:56:49:e1:95:01:95:42:e3:68:15:9c:96:63:6e:
         df:e0:23:4d:df:0d:b0:a2:59:11:05:4f:45:68:7d:37:fb:ed:
         dd:2b:69:62:49:e3:ab:ff:3a:d2:e4:7f:c2:c3:7b:c3:ba:90:
         65:7e:30:e6:1e:82:b6:f2:6c:44:d6:2b:0d:46:91:8a:22:af:
         b5:14:06:3c:5a:d3:f0:ad:09:f9:22:bd:86:c5:da:4a:da:88:
         0b:33:77:6e
-----BEGIN CERTIFICATE-----
MIIECTCCAvGgAwIBAgIEEAAA0zANBgkqhkiG9w0BAQUFADBEMQswCQYDVQQGEwJE
RTEPMA0GA1UECAwGSGVzc2VuMRQwEgYDVQQKDAtwcml2YWN5aWRlYTEOMAwGA1UE
AwwFQ0EwMDEwHhcNMTYwNTI5MjIxMjEzWhcNMTcwNTI5MjIxMjEzWjA3MRMwEQYD
VQQDEwpTdGV2ZSBUZXN0MSAwHgYJKoZIhvcNAQkBFhFzdGV2ZUBvcGVuc3NsLm9y
ZzCCASIwDQYJKoZIhvcNAQEBBQADggEPADCCAQoCggEBANKBiSBRSA9z9BEyJNUf
HP1c9bbmxfBSgdzSr2ZKfJMxYVyv0W0GcANgfHIMiN1JzZ4CbNJa11MP89q+aWS1
DwwA47NQR6Ozm7oTUNZYWkurOeARygonZwN4ImZtkh4bXEmu5mvRjjudBtPGrE1T
QxCr6JbBh4KXmY8g05kSNzGE4Yr/KQNfIpA+f5vgIMGt3K5MORoxlhcCjLLZtA0g
Ept9hlT9M/3BKmJG+GCWz24BbyLfE0fnl+wFciOjYvj676yccvA3yy83z5CoJ1GG
xtd4CI9+JaIVcKL7HLYVXqCXi4FMCSiKJzuUvHHbW3E3misW4G+1yfVLTyC6Zc+v
ra0CAwEAAaOCAQ4wggEKMAsGA1UdDwQEAwIFoDAJBgNVHRMEAjAAMBEGCWCGSAGG
+EIBAQQEAwIGQDAzBglghkgBhvhCAQ0EJhYkT3BlblNTTCBHZW5lcmF0ZWQgU2Vy
dmVyIENlcnRpZmljYXRlMB0GA1UdDgQWBBTlJW0+rw3dP0zyRRk51RTbfpzArTB0
BgNVHSMEbTBrgBT0p8DMkUavZPOR8if4yLJviocyc6FIpEYwRDELMAkGA1UEBhMC
REUxDzANBgNVBAgMBkhlc3NlbjEUMBIGA1UECgwLcHJpdmFjeWlkZWExDjAMBgNV
BAMMBUNBMDAxggkA+8jrrIPNEgcwEwYDVR0lBAwwCgYIKwYBBQUHAwEwDQYJKoZI
hvcNAQEFBQADggEBAE2+2bQNDEB4JPqajvSiAl9aYNOFBiOOVyj3b/0orR6psIv1
hLxkcgekSoWXtD2iyu9qazO2blQroKi4RPyOXynne2mxCysntFbT2UgDUqPRoH8Y
wwmhZ7EaPxaGE4t3XbuSGZQyUZema1HdxEWIs7cdMtgjVMdREw3Cz++El9Pi8hK8
ZiQeSBm0TnglmGhdEjQTt6NzoRF4Bm6IUcqUrqmf6BiBloJWSeGVAZVC42gVnJZj
bt/gI03fDbCiWREFT0VofTf77d0raWJJ46v/OtLkf8LDe8O6kGV+MOYegrbybETW
Kw1GkYoir7UUBjxa0/CtCfkivYbF2kraiAszd24=
-----END CERTIFICATE-----
