Certificate:
    Data:
        Version: 3 (0x2)
        Serial Number: 268435663 (0x100000cf)
    Signature Algorithm: sha1WithRSAEncryption
        Issuer: C=DE, ST=Hessen, O=privacyidea, CN=CA001
        Validity
            Not Before: Jun 24 15:28:04 2016 GMT
            Not After : Jun 24 15:28:04 2017 GMT
        Subject: CN=selfservice,CN=user,O=realm1/emailAddress=meine
        Subject Public Key Info:
            Public Key Algorithm: rsaEncryption
                Public-Key: (2048 bit)
                Modulus:
                    00:cf:3c:d4:33:0e:12:c4:e6:da:cd:b6:56:a1:1c:
                    26:bb:26:1c:8a:4a:73:a8:58:8a:b6:1e:b3:8b:99:
                    d2:1d:07:c2:92:89:79:c0:69:d8:c8:df:28:61:98:
                    1e:b3:fe:ae:2b:bd:78:a9:f7:6e:47:dc:a3:a0:16:
                    8c:85:02:c1:4e:92:fd:72:6e:f0:c8:03:29:9b:b8:
                    00:6e:c0:83:95:c8:34:20:36:9c:b3:e5:e4:e6:76:
                    73:a3:1a:ad:40:96:e0:53:54:00:ec:76:79:9a:c6:
                    0d:7e:b6:bd:29:ec:83:f3:cb:89:a4:cb:6c:00:ba:
                    0c:c5:78:0f:ff:69:b8:94:f4:04:70:43:3f:d8:9e:
                    d7:a7:fb:5d:ce:75:8e:da:e7:c4:07:b1:9d:de:6f:
                    88:4b:b6:4d:9a:cf:f9:bc:fa:9f:cd:32:6d:f6:3a:
                    0b:0d:23:42:78:ec:97:42:bf:0e:4d:60:56:e1:d3:
                    02:f2:19:cb:84:57:90:e5:70:a1:a2:83:35:86:e2:
                    da:86:9f:f9:8a:c4:79:b3:52:28:da:cb:bb:34:ca:
                    d3:da:91:4a:cf:8d:76:a2:b2:6b:9b:f9:96:fd:09:
                    2a:da:11:23:4d:f0:cb:d6:b2:b1:0e:12:6c:9a:19:
                    65:98:87:ca:e4:ee:24:ce:44:ac:90:8f:9d:1b:c5:
                    2a:9d
                Exponent: 65537 (0x10001)
        X509v3 extensions:
            X509v3 Key Usage: 
                Digital Signature, Key Encipherment
            X509v3 Basic Constraints: 
                CA:FALSE
            Netscape Cert Type: 
                SSL Server
            Netscape Comment: 
                OpenSSL Generated Server Certificate
            X509v3 Subject Key Identifier: 
                4D:07:90:AD:FF:1D:0D:E7:1A:DD:D6:2E:FA:BA:34:CB:AA:1F:24:C6
            X509v3 Authority Key Identifier: 
                keyid:F4:A7:C0:CC:91:46:AF:64:F3:91:F2:27:F8:C8:B2:6F:8A:87:32:73
                DirName:/C=DE/ST=Hessen/O=privacyidea/CN=CA001
                serial:FB:C8:EB:AC:83:CD:12:07

            X509v3 Extended Key Usage: 
                TLS Web Server Authentication
    Signature Algorithm: sha1WithRSAEncryption
         29:00:51:ca:85:c3:a0:97:d6:5b:ae:68:b5:31:b8:89:14:34:
         d3:3f:ab:42:08:83:39:08:c8:a8:03:30:a0:55:e0:01:e3:f3:
         cf:8c:0a:09:00:c1:80:8b:90:30:c6:0e:49:56:16:3d:32:00:
         8d:8c:8d:b2:82:6e:28:d2:93:09:18:8f:30:a3:c9:4b:1d:71:
         bc:f2:eb:69:09:39:51:87:64:4b:1a:57:30:97:18:06:0d:a8:
         55:cf:4b:54:ae:3c:f8:bd:81:5f:89:e7:5f:18:b2:01:f1:81:
         98:e4:45:82:c7:5c:65:1b:96:1b:1e:2d:91:0b:84:bb:26:ac:
         50:c3:25:a8:11:a1:ef:9c:22:4e:4b:ae:e2:9f:2b:97:5b:76:
         90:71:94:9b:ce:3e:a6:f0:1b:72:58:0e:2a:e4:e8:77:f4:cc:
         c3:13:78:04:1d:f5:0e:dc:a0:18:6a:05:a1:d3:7a:04:93:45:
         7b:3c:11:3b:8e:38:dd:3c:c8:85:49:6f:fb:07:18:17:86:d9:
         3a:af:85:7c:b1:5d:db:83:a8:04:ee:14:e8:03:fb:70:85:f6:
         15:18:8f:c2:39:10:1c:83:83:fb:58:28:f8:67:91:84:13:45:
         a5:c9:b4:cd:ba:2d:ad:3d:b6:32:70:e7:bd:83:92:bb:b8:95:
         47:bc:ec:09
-----BEGIN CERTIFICATE-----
MIIEDzCCAvegAwIBAgIEEAAAzzANBgkqhkiG9w0BAQUFADBEMQswCQYDVQQGEwJE
RTEPMA0GA1UECAwGSGVzc2VuMRQwEgYDVQQKDAtwcml2YWN5aWRlYTEOMAwGA1UE
AwwFQ0EwMDEwHhcNMTYwNjI0MTUyODA0WhcNMTcwNjI0MTUyODA0WjA9MSUwIwYD
VQQDExxzZWxmc2VydmljZSxDTj11c2VyLE89cmVhbG0xMRQwEgYJKoZIhvcNAQkB
FgVtZWluZTCCASIwDQYJKoZIhvcNAQEBBQADggEPADCCAQoCggEBAM881DMOEsTm
2s22VqEcJrsmHIpKc6hYirYes4uZ0h0HwpKJecBp2MjfKGGYHrP+riu9eKn3bkfc
o6AWjIUCwU6S/XJu8MgDKZu4AG7Ag5XINCA2nLPl5OZ2c6MarUCW4FNUAOx2eZrG
DX62vSnsg/PLiaTLbAC6DMV4D/9puJT0BHBDP9ie16f7Xc51jtrnxAexnd5viEu2
TZrP+bz6n80ybfY6Cw0jQnjsl0K/Dk1gVuHTAvIZy4RXkOVwoaKDNYbi2oaf+YrE
ebNSKNrLuzTK09qRSs+NdqKya5v5lv0JKtoRI03wy9aysQ4SbJoZZZiHyuTuJM5E
rJCPnRvFKp0CAwEAAaOCAQ4wggEKMAsGA1UdDwQEAwIFoDAJBgNVHRMEAjAAMBEG
CWCGSAGG+EIBAQQEAwIGQDAzBglghkgBhvhCAQ0EJhYkT3BlblNTTCBHZW5lcmF0
ZWQgU2VydmVyIENlcnRpZmljYXRlMB0GA1UdDgQWBBRNB5Ct/x0N5xrd1i76ujTL
qh8kxjB0BgNVHSMEbTBrgBT0p8DMkUavZPOR8if4yLJviocyc6FIpEYwRDELMAkG
A1UEBhMCREUxDzANBgNVBAgMBkhlc3NlbjEUMBIGA1UECgwLcHJpdmFjeWlkZWEx
DjAMBgNVBAMMBUNBMDAxggkA+8jrrIPNEgcwEwYDVR0lBAwwCgYIKwYBBQUHAwEw
DQYJKoZIhvcNAQEFBQADggEBACkAUcqFw6CX1luuaLUxuIkUNNM/q0IIgzkIyKgD
MKBV4AHj88+MCgkAwYCLkDDGDklWFj0yAI2MjbKCbijSkwkYjzCjyUsdcbzy62kJ
OVGHZEsaVzCXGAYNqFXPS1SuPPi9gV+J518YsgHxgZjkRYLHXGUblhseLZELhLsm
rFDDJagRoe+cIk5LruKfK5dbdpBxlJvOPqbwG3JYDirk6Hf0zMMTeAQd9Q7coBhq
BaHTegSTRXs8ETuOON08yIVJb/sHGBeG2TqvhXyxXduDqATuFOgD+3CF9hUYj8I5
EByDg/tYKPhnkYQTRaXJtM26La09tjJw572Dkru4lUe87Ak=
-----END CERTIFICATE-----
