Certificate:
    Data:
        Version: 3 (0x2)
        Serial Number: 268435659 (0x100000cb)
    Signature Algorithm: sha1WithRSAEncryption
        Issuer: C=DE, ST=Hessen, O=privacyidea, CN=CA001
        Validity
            Not Before: Jun 24 15:15:51 2016 GMT
            Not After : Jun 24 15:15:51 2017 GMT
        Subject: C=DE, ST=Hessen, O=privacyidea, CN=usercert
        Subject Public Key Info:
            Public Key Algorithm: rsaEncryption
                Public-Key: (2048 bit)
                Modulus:
                    00:dc:2f:d1:5f:29:97:d4:7c:c3:53:c8:30:bd:4b:
                    67:70:2c:24:6b:b8:5e:eb:21:7a:48:12:56:7c:81:
                    5c:48:75:b6:68:eb:f6:f2:98:4e:50:51:d1:7f:6c:
                    73:f3:0a:a7:ae:be:48:5e:e5:d6:e1:d9:2a:7c:32:
                    6e:4e:fd:08:f6:5a:54:49:23:73:c3:b9:07:18:d1:
                    ef:b3:ac:f8:8a:dc:94:96:a4:90:3a:8e:74:df:e6:
                    0d:37:1b:bd:5b:b7:25:1a:56:39:da:6f:91:aa:5e:
                    1c:74:f3:f9:7c:14:01:83:12:65:76:c7:bb:fe:36:
                    5b:95:e9:72:65:83:ed:3e:98:30:71:fa:87:dd:a3:
                    36:5a:30:03:2e:26:e0:61:d1:bf:02:3f:b6:06:1f:
                    4a:89:28:1c:5c:a2:ff:4e:be:94:e6:8c:e0:da:82:
                    f1:9d:29:32:48:30:73:b4:04:f6:42:1e:be:f7:e2:
                    32:32:27:3c:9d:89:2f:70:3e:85:9a:6f:5c:c5:09:
                    c0:8c:32:2f:72:22:c9:d2:95:1f:b6:ac:72:60:72:
                    b7:82:4d:6b:ce:5b:e3:00:d0:d2:2f:58:c6:e0:10:
                    e5:51:ca:4d:3b:2e:e6:7e:ab:84:d6:56:f1:93:35:
                    a0:93:64:26:81:75:2f:91:b5:16:06:38:0b:db:cc:
                    2d:07
                Exponent: 65537 (0x10001)
        X509v3 extensions:
            X509v3 Key Usage: 
                Digital Signature, Key Encipherment
            X509v3 Basic Constraints: 
                CA:FALSE
            Netscape Cert Type: 
                SSL Server
            Netscape Comment: 
                OpenSSL Generated Server Certificate
            X509v3 Subject Key Identifier: 
                FC:14:D1:F0:4B:8D:00:90:F2:F5:B8:71:9E:4E:97:C3:92:54:AD:0B
            X509v3 Authority Key Identifier: 
                keyid:F4:A7:C0:CC:91:46:AF:64:F3:91:F2:27:F8:C8:B2:6F:8A:87:32:73
                DirName:/C=DE/ST=Hessen/O=privacyidea/CN=CA001
                serial:FB:C8:EB:AC:83:CD:12:07

            X509v3 Extended Key Usage: 
                TLS Web Server Authentication
    Signature Algorithm: sha1WithRSAEncryption
         24:cb:65:67:74:1c:c3:c1:e8:14:3b:26:41:8c:7a:7a:5c:17:
         10:b0:03:c3:21:17:90:8e:3c:ba:63:93:5e:35:a1:0e:96:4d:
         39:b1:6e:e0:ed:d0:0e:77:88:51:ba:bf:0c:24:73:f0:33:85:
         44:22:23:ef:17:2f:b7:f9:62:3f:22:10:7d:86:2d:98:a0:48:
         94:a3:fd:14:5d:8c:6d:39:bb:ea:79:97:8d:d6:7c:c4:3c:4c:
         7d:39:b1:6d:18:73:4c:c2:37:b4:63:02:8a:b2:f5:c6:26:a2:
         f0:6b:06:87:7f:fe:4d:36:38:0c:13:e3:e9:92:92:ea:3d:33:
         ab:98:6c:71:fc:c3:67:1f:9e:b8:60:2f:c4:32:0d:46:4e:b3:
         25:cd:2a:8e:f1:65:b0:00:18:9c:ee:ad:e5:b0:6a:60:cd:1b:
         bf:8c:8a:c2:45:93:d5:05:38:b2:42:93:be:e3:b4:c4:7e:38:
         59:09:60:c5:8e:ab:2c:5f:0b:38:0e:43:f2:a2:ce:c8:56:1f:
         40:95:ca:ec:4f:8d:17:10:45:9f:8d:ba:b9:9a:78:39:9a:fc:
         f4:16:a8:df:e0:aa:db:bd:51:d0:2b:f3:44:2b:65:fc:47:c9:
         ef:b6:0b:3c:19:a1:36:0b:d7:2a:40:74:11:59:03:76:7e:4a:
         1e:80:e5:08
-----BEGIN CERTIFICATE-----
MIIEGTCCAwGgAwIBAgIEEAAAyzANBgkqhkiG9w0BAQUFADBEMQswCQYDVQQGEwJE
RTEPMA0GA1UECAwGSGVzc2VuMRQwEgYDVQQKDAtwcml2YWN5aWRlYTEOMAwGA1UE
AwwFQ0EwMDEwHhcNMTYwNjI0MTUxNTUxWhcNMTcwNjI0MTUxNTUxWjBHMQswCQYD
VQQGEwJERTEPMA0GA1UECAwGSGVzc2VuMRQwEgYDVQQKDAtwcml2YWN5aWRlYTER
MA8GA1UEAwwIdXNlcmNlcnQwggEiMA0GCSqGSIb3DQEBAQUAA4IBDwAwggEKAoIB
AQDcL9FfKZfUfMNTyDC9S2dwLCRruF7rIXpIElZ8gVxIdbZo6/bymE5QUdF/bHPz
Cqeuvkhe5dbh2Sp8Mm5O/Qj2WlRJI3PDuQcY0e+zrPiK3JSWpJA6jnTf5g03G71b
tyUaVjnab5GqXhx08/l8FAGDEmV2x7v+NluV6XJlg+0+mDBx+ofdozZaMAMuJuBh
0b8CP7YGH0qJKBxcov9OvpTmjODagvGdKTJIMHO0BPZCHr734jIyJzydiS9wPoWa
b1zFCcCMMi9yIsnSlR+2rHJgcreCTWvOW+MA0NIvWMbgEOVRyk07LuZ+q4TWVvGT
NaCTZCaBdS+RtRYGOAvbzC0HAgMBAAGjggEOMIIBCjALBgNVHQ8EBAMCBaAwCQYD
VR0TBAIwADARBglghkgBhvhCAQEEBAMCBkAwMwYJYIZIAYb4QgENBCYWJE9wZW5T
U0wgR2VuZXJhdGVkIFNlcnZlciBDZXJ0aWZpY2F0ZTAdBgNVHQ4EFgQU/BTR8EuN
AJDy9bhxnk6Xw5JUrQswdAYDVR0jBG0wa4AU9KfAzJFGr2TzkfIn+Miyb4qHMnOh
SKRGMEQxCzAJBgNVBAYTAkRFMQ8wDQYDVQQIDAZIZXNzZW4xFDASBgNVBAoMC3By
aXZhY3lpZGVhMQ4wDAYDVQQDDAVDQTAwMYIJAPvI66yDzRIHMBMGA1UdJQQMMAoG
CCsGAQUFBwMBMA0GCSqGSIb3DQEBBQUAA4IBAQAky2VndBzDwegUOyZBjHp6XBcQ
sAPDIReQjjy6Y5NeNaEOlk05sW7g7dAOd4hRur8MJHPwM4VEIiPvFy+3+WI/IhB9
hi2YoEiUo/0UXYxtObvqeZeN1nzEPEx9ObFtGHNMwje0YwKKsvXGJqLwawaHf/5N
NjgME+PpkpLqPTOrmGxx/MNnH564YC/EMg1GTrMlzSqO8WWwABic7q3lsGpgzRu/
jIrCRZPVBTiyQpO+47TEfjhZCWDFjqssXws4DkPyos7IVh9AlcrsT40XEEWfjbq5
mng5mvz0Fqjf4KrbvVHQK/NEK2X8R8nvtgs8GaE2C9cqQHQRWQN2fkoegOUI
-----END CERTIFICATE-----
