Certificate:
    Data:
        Version: 3 (0x2)
        Serial Number: 268435662 (0x100000ce)
    Signature Algorithm: sha1WithRSAEncryption
        Issuer: C=DE, ST=Hessen, O=privacyidea, CN=CA001
        Validity
            Not Before: Jun 24 15:19:47 2016 GMT
            Not After : Jun 24 15:19:47 2017 GMT
        Subject: OU=realm1, CN=cornelius/emailAddress=user@localhost.localdomain
        Subject Public Key Info:
            Public Key Algorithm: rsaEncryption
                Public-Key: (2048 bit)
                Modulus:
                    00:a5:98:8f:14:c5:6f:0c:52:e5:b2:30:ff:86:c3:
                    da:bb:8f:e7:3d:78:a3:38:1a:09:41:06:12:2d:9b:
                    e4:0a:92:67:75:ee:50:43:1c:84:65:af:07:06:13:
                    e8:8a:11:4b:0a:fa:ff:5e:a1:d2:a2:5c:00:46:9f:
                    ca:00:e0:23:46:be:91:f7:fd:9e:d4:81:06:12:ab:
                    a0:4f:54:2b:b7:fb:3c:66:08:7f:5c:f8:45:48:9f:
                    60:ea:f2:c5:06:e0:4d:36:e5:38:01:39:3d:c5:fc:
                    3b:fc:41:ef:85:4b:d5:74:82:63:9a:16:38:1b:36:
                    8a:48:78:46:b1:db:15:e3:35:41:b0:c6:49:46:b8:
                    7f:74:7b:d9:2c:7d:bd:31:f1:88:30:76:d6:2d:3b:
                    1d:6e:a6:67:14:8e:da:31:13:df:64:ab:2d:3e:af:
                    34:06:d0:90:59:0d:5e:44:74:b6:b6:1b:5b:0e:60:
                    a1:51:53:2e:78:22:e1:4e:1e:27:ad:ff:6e:fb:2b:
                    03:66:a7:0b:91:0b:3d:67:20:77:dd:89:73:b9:7f:
                    34:a9:d3:67:d8:70:e6:ce:7e:70:25:ce:ea:a5:71:
                    90:a0:a8:ff:9f:59:a5:f8:c2:79:53:a2:5d:5e:7c:
                    3a:1d:df:3b:c2:7e:23:b6:cc:f8:eb:06:a8:46:0d:
                    2b:f1
                Exponent: 65537 (0x10001)
        X509v3 extensions:
            X509v3 Key Usage: 
                Digital Signature, Key Encipherment
            X509v3 Basic Constraints: 
                CA:FALSE
            Netscape Cert Type: 
                SSL Server
            Netscape Comment: 
                OpenSSL Generated Server Certificate
            X509v3 Subject Key Identifier: 
                98:EB:78:ED:0C:6B:83:02:DE:DE:2E:F2:36:70:CE:02:E4:5C:07:74
            X509v3 Authority Key Identifier: 
                keyid:F4:A7:C0:CC:91:46:AF:64:F3:91:F2:27:F8:C8:B2:6F:8A:87:32:73
                DirName:/C=DE/ST=Hessen/O=privacyidea/CN=CA001
                serial:FB:C8:EB:AC:83:CD:12:07

            X509v3 Extended Key Usage: 
                TLS Web Server Authentication
    Signature Algorithm: sha1WithRSAEncryption
         a3:84:fe:92:87:af:65:27:b8:62:49:22:6d:a0:58:1e:89:6a:
         34:d4:f4:7b:57:f7:0a:38:ba:ed:cd:eb:43:58:35:e3:b9:41:
         ed:a1:96:21:17:44:18:4a:49:e2:4e:08:b3:5b:51:b7:a1:6b:
         9f:da:64:a3:7a:07:fd:58:49:d4:4c:9c:6b:e2:62:52:2e:42:
         71:67:29:a6:a7:e2:bc:37:c5:31:f9:20:78:90:36:43:a9:ce:
         d5:91:81:ed:8e:65:76:d0:98:49:57:6b:60:1b:41:9b:4c:9d:
         e0:15:b6:46:25:77:85:38:9d:95:e7:9a:81:42:97:12:08:6b:
         e3:6e:45:a9:3f:0a:5d:9e:52:1c:5f:c1:90:ae:d1:36:4c:59:
         5e:ac:b3:f0:97:4f:64:e5:39:47:2b:f1:b4:e2:1f:5d:03:a4:
         c6:0c:4d:89:7a:d8:23:20:12:6b:77:04:40:58:dd:1e:5e:e4:
         28:f4:ee:50:a8:8b:03:9c:14:18:18:7f:c8:eb:c6:36:d1:43:
         83:a4:25:a0:7f:a1:d8:9b:ba:39:1b:19:e5:36:6f:66:8f:0c:
         d6:06:82:ad:3f:3d:e8:6a:54:5d:be:4f:09:25:ca:bf:a5:fd:
         aa:6a:04:4b:a0:76:6c:d2:cf:f1:6b:ba:91:17:57:a0:ac:3b:
         4f:74:60:41
-----BEGIN CERTIFICATE-----
MIIEIjCCAwqgAwIBAgIEEAAAzjANBgkqhkiG9w0BAQUFADBEMQswCQYDVQQGEwJE
RTEPMA0GA1UECAwGSGVzc2VuMRQwEgYDVQQKDAtwcml2YWN5aWRlYTEOMAwGA1UE
AwwFQ0EwMDEwHhcNMTYwNjI0MTUxOTQ3WhcNMTcwNjI0MTUxOTQ3WjBQMQ8wDQYD
VQQLEwZyZWFsbTExEjAQBgNVBAMTCWNvcm5lbGl1czEpMCcGCSqGSIb3DQEJARYa
dXNlckBsb2NhbGhvc3QubG9jYWxkb21haW4wggEiMA0GCSqGSIb3DQEBAQUAA4IB
DwAwggEKAoIBAQClmI8UxW8MUuWyMP+Gw9q7j+c9eKM4GglBBhItm+QKkmd17lBD
HIRlrwcGE+iKEUsK+v9eodKiXABGn8oA4CNGvpH3/Z7UgQYSq6BPVCu3+zxmCH9c
+EVIn2Dq8sUG4E025TgBOT3F/Dv8Qe+FS9V0gmOaFjgbNopIeEax2xXjNUGwxklG
uH90e9ksfb0x8YgwdtYtOx1upmcUjtoxE99kqy0+rzQG0JBZDV5EdLa2G1sOYKFR
Uy54IuFOHiet/277KwNmpwuRCz1nIHfdiXO5fzSp02fYcObOfnAlzuqlcZCgqP+f
WaX4wnlTol1efDod3zvCfiO2zPjrBqhGDSvxAgMBAAGjggEOMIIBCjALBgNVHQ8E
BAMCBaAwCQYDVR0TBAIwADARBglghkgBhvhCAQEEBAMCBkAwMwYJYIZIAYb4QgEN
BCYWJE9wZW5TU0wgR2VuZXJhdGVkIFNlcnZlciBDZXJ0aWZpY2F0ZTAdBgNVHQ4E
FgQUmOt47QxrgwLe3i7yNnDOAuRcB3QwdAYDVR0jBG0wa4AU9KfAzJFGr2TzkfIn
+Miyb4qHMnOhSKRGMEQxCzAJBgNVBAYTAkRFMQ8wDQYDVQQIDAZIZXNzZW4xFDAS
BgNVBAoMC3ByaXZhY3lpZGVhMQ4wDAYDVQQDDAVDQTAwMYIJAPvI66yDzRIHMBMG
A1UdJQQMMAoGCCsGAQUFBwMBMA0GCSqGSIb3DQEBBQUAA4IBAQCjhP6Sh69lJ7hi
SSJtoFgeiWo01PR7V/cKOLrtzetDWDXjuUHtoZYhF0QYSkniTgizW1G3oWuf2mSj
egf9WEnUTJxr4mJSLkJxZymmp+K8N8Ux+SB4kDZDqc7VkYHtjmV20JhJV2tgG0Gb
TJ3gFbZGJXeFOJ2V55qBQpcSCGvjbkWpPwpdnlIcX8GQrtE2TFlerLPwl09k5TlH
K/G04h9dA6TGDE2JetgjIBJrdwRAWN0eXuQo9O5QqIsDnBQYGH/I68Y20UODpCWg
f6HYm7o5GxnlNm9mjwzWBoKtPz3oalRdvk8JJcq/pf2qagRLoHZs0s/xa7qRF1eg
rDtPdGBB
-----END CERTIFICATE-----
