Certificate:
    Data:
        Version: 3 (0x2)
        Serial Number: 268435661 (0x100000cd)
    Signature Algorithm: sha1WithRSAEncryption
        Issuer: C=DE, ST=Hessen, O=privacyidea, CN=CA001
        Validity
            Not Before: Jun 24 15:19:46 2016 GMT
            Not After : Jun 24 15:19:46 2017 GMT
        Subject: C=DE, ST=Hessen, O=privacyidea, CN=requester.localdomain
        Subject Public Key Info:
            Public Key Algorithm: rsaEncryption
                Public-Key: (2048 bit)
                Modulus:
                    00:cd:be:14:4f:fa:ce:01:3f:42:22:1b:1d:9c:af:
                    dd:92:d2:7f:db:6c:b7:3e:39:43:43:6b:13:03:f1:
                    05:f4:07:74:bc:76:69:28:0b:af:19:8e:d7:fc:e3:
                    cd:c6:58:f2:ca:7f:08:6d:53:fc:07:02:44:24:c6:
                    b4:34:4c:8c:04:fe:33:0e:40:e2:20:ba:02:73:5a:
                    f7:f5:4f:63:6e:cc:c6:b6:df:54:1d:37:39:7d:51:
                    36:26:5f:bd:dc:3f:a8:8b:6b:a2:ae:b6:9d:d6:21:
                    e7:df:41:b8:7a:28:2a:68:48:ca:a8:2d:ed:e1:e9:
                    46:5e:5a:72:6d:b4:84:38:87:91:fd:94:11:0b:28:
                    84:c6:c2:2f:2a:fb:01:f9:36:7a:09:75:d1:33:88:
                    3c:73:41:5b:c8:bf:94:89:70:a1:f0:c0:b9:2e:50:
                    53:1e:b1:17:64:69:f4:2d:81:e0:a9:0d:0e:32:e9:
                    ba:55:8a:85:f1:1b:6f:49:79:b4:7f:88:c3:0d:3e:
                    54:88:9b:3d:1f:38:8c:04:f3:ee:6a:63:2b:f5:c6:
                    db:b4:83:aa:c4:78:41:3a:7d:4b:e1:c8:3e:71:ca:
                    1b:61:59:ea:c6:c4:ca:32:5e:c9:e9:bf:12:29:e6:
                    c6:c3:63:fe:a0:55:da:7a:f1:60:98:4d:26:ed:fa:
                    70:2d
                Exponent: 65537 (0x10001)
        X509v3 extensions:
            X509v3 Key Usage: 
                Digital Signature, Key Encipherment
            X509v3 Basic Constraints: 
                CA:FALSE
            Netscape Cert Type: 
                SSL Server
            Netscape Comment: 
                OpenSSL Generated Server Certificate
            X509v3 Subject Key Identifier: 
                53:3F:ED:5D:09:07:B3:65:7B:AB:45:C9:24:5B:09:77:80:0A:96:ED
            X509v3 Authority Key Identifier: 
                keyid:F4:A7:C0:CC:91:46:AF:64:F3:91:F2:27:F8:C8:B2:6F:8A:87:32:73
                DirName:/C=DE/ST=Hessen/O=privacyidea/CN=CA001
                serial:FB:C8:EB:AC:83:CD:12:07

            X509v3 Extended Key Usage: 
                TLS Web Server Authentication
    Signature Algorithm: sha1WithRSAEncryption
         18:c7:9a:1f:7f:36:a4:64:a8:2d:9b:57:1e:24:6a:ea:d0:43:
         13:3d:67:c5:dd:4f:fc:01:83:87:47:e6:d0:20:c2:e5:19:16:
         98:f9:69:44:b5:be:6b:79:f8:29:29:36:db:37:02:ff:47:84:
         58:cd:be:66:95:4b:e1:7d:31:42:f5:91:ff:70:7a:2f:14:4c:
         55:26:70:32:5d:2a:8e:40:3b:25:57:56:93:1f:cd:93:f3:be:
         9b:be:41:79:f5:f5:19:e9:64:e7:4f:c2:83:8a:73:74:5f:be:
         1f:20:13:5c:21:d1:bc:db:2b:e1:ed:b5:63:85:d8:2a:42:c7:
         d6:94:03:14:a8:4d:cf:64:00:47:55:77:ec:97:64:0c:76:3c:
         0f:aa:02:83:ac:41:ed:8d:cf:74:20:84:88:ed:a3:85:5c:ae:
         9f:57:6b:34:79:ff:85:82:77:2b:5c:87:37:04:ca:1b:01:c3:
         69:6d:ef:64:a3:fe:fa:17:ab:56:1c:a4:72:af:b1:63:71:dc:
         2b:76:b1:89:5f:eb:a5:85:6a:bf:27:09:72:91:7f:e9:e9:c8:
         0f:68:d3:ba:17:89:88:b3:d6:59:48:5a:b6:f4:7c:53:8f:d4:
         da:38:f6:65:b8:9b:51:41:e8:1f:ae:1e:e3:2b:ae:86:e8:f2:
         6f:ee:bc:17
-----BEGIN CERTIFICATE-----
MIIEJjCCAw6gAwIBAgIEEAAAzTANBgkqhkiG9w0BAQUFADBEMQswCQYDVQQGEwJE
RTEPMA0GA1UECAwGSGVzc2VuMRQwEgYDVQQKDAtwcml2YWN5aWRlYTEOMAwGA1UE
AwwFQ0EwMDEwHhcNMTYwNjI0MTUxOTQ2WhcNMTcwNjI0MTUxOTQ2WjBUMQswCQYD
VQQGEwJERTEPMA0GA1UECAwGSGVzc2VuMRQwEgYDVQQKDAtwcml2YWN5aWRlYTEe
MBwGA1UEAwwVcmVxdWVzdGVyLmxvY2FsZG9tYWluMIIBIjANBgkqhkiG9w0BAQEF
AAOCAQ8AMIIBCgKCAQEAzb4UT/rOAT9CIhsdnK/dktJ/22y3PjlDQ2sTA/EF9Ad0
vHZpKAuvGY7X/OPNxljyyn8IbVP8BwJEJMa0NEyMBP4zDkDiILoCc1r39U9jbszG
tt9UHTc5fVE2Jl+93D+oi2uirrad1iHn30G4eigqaEjKqC3t4elGXlpybbSEOIeR
/ZQRCyiExsIvKvsB+TZ6CXXRM4g8c0FbyL+UiXCh8MC5LlBTHrEXZGn0LYHgqQ0O
Mum6VYqF8RtvSXm0f4jDDT5UiJs9HziMBPPuamMr9cbbtIOqxHhBOn1L4cg+ccob
YVnqxsTKMl7J6b8SKebGw2P+oFXaevFgmE0m7fpwLQIDAQABo4IBDjCCAQowCwYD
VR0PBAQDAgWgMAkGA1UdEwQCMAAwEQYJYIZIAYb4QgEBBAQDAgZAMDMGCWCGSAGG
+EIBDQQmFiRPcGVuU1NMIEdlbmVyYXRlZCBTZXJ2ZXIgQ2VydGlmaWNhdGUwHQYD
VR0OBBYEFFM/7V0JB7Nle6tFySRbCXeACpbtMHQGA1UdIwRtMGuAFPSnwMyRRq9k
85HyJ/jIsm+KhzJzoUikRjBEMQswCQYDVQQGEwJERTEPMA0GA1UECAwGSGVzc2Vu
MRQwEgYDVQQKDAtwcml2YWN5aWRlYTEOMAwGA1UEAwwFQ0EwMDGCCQD7yOusg80S
BzATBgNVHSUEDDAKBggrBgEFBQcDATANBgkqhkiG9w0BAQUFAAOCAQEAGMeaH382
pGSoLZtXHiRq6tBDEz1nxd1P/AGDh0fm0CDC5RkWmPlpRLW+a3n4KSk22zcC/0eE
WM2+ZpVL4X0xQvWR/3B6LxRMVSZwMl0qjkA7JVdWkx/Nk/O+m75BefX1Gelk50/C
g4pzdF++HyATXCHRvNsr4e21Y4XYKkLH1pQDFKhNz2QAR1V37JdkDHY8D6oCg6xB
7Y3PdCCEiO2jhVyun1drNHn/hYJ3K1yHNwTKGwHDaW3vZKP++herVhykcq+xY3Hc
K3axiV/rpYVqvycJcpF/6enID2jTuheJiLPWWUhatvR8U4/U2jj2ZbibUUHoH64e
4yuuhujyb+68Fw==
-----END CERTIFICATE-----
