(dp0
S'orderBy'
p1
S'y'
p2
sS'orderInverse'
p3
I01
sS'maxSpikes'
p4
I400
sS'spikeHist'
p5
NsS'syncLines'
p6
I01
sS'sortedGids'
p7
(dp8
I0
I0
sI1
I3
sI2
I4
sI3
I12
sI4
I1
sI5
I11
sI6
I10
sI7
I8
sI8
I6
sI9
I14
sI10
I5
sI11
I7
sI12
I13
sI13
I2
sI14
I9
ssS'spkColors'
p9
((lp10
F0.42
aF0.83
aF0.59
ag10
g10
g10
g10
g10
g10
g10
g10
g10
g10
g10
g10
(lp11
F0.42
aF0.67
aF0.84
ag10
g10
g11
g10
g11
g10
g10
g10
g10
g10
g11
g10
g10
g10
g10
g10
g10
g10
g10
g10
g10
g10
g10
g10
g10
g11
g10
g10
g10
g10
g10
g11
g10
g11
g10
g10
g10
g10
g10
g10
g10
g10
g10
g11
g11
g10
g10
g10
g10
g11
g10
g10
g10
g11
g10
g10
g10
g11
g10
g10
g10
g11
g10
g10
g10
g11
g10
g10
g10
g10
g11
g10
g11
g10
g10
g10
g10
g10
g11
g10
g10
g10
g10
g11
g11
g10
g10
g10
g10
g10
g11
g10
g10
g10
g10
g10
g10
g10
g10
g10
g10
g10
g10
g10
g10
g10
g11
g11
g10
g11
g11
g10
g10
g10
g10
g10
g10
g10
g11
g11
g10
g10
g11
g10
g10
g10
g10
g10
g10
g10
g10
g10
g10
g10
g10
g10
g10
g11
g10
g10
g10
g10
g10
g10
g10
g10
g10
g10
g10
g11
g11
g10
g10
g10
g10
g10
g10
g10
g10
g10
g10
g10
g10
g10
g10
g10
g10
g11
g11
g10
g10
g11
g11
g10
g10
g11
g10
g11
g10
g10
g10
g10
g10
g10
g10
g10
g10
g10
g10
g11
g10
g10
g11
g10
g10
g10
g10
g10
g10
g10
g10
g10
g10
g10
g10
g10
g11
g11
g10
g10
g11
g10
g10
g10
g10
g10
g10
g10
g11
g10
g10
g10
g11
g10
g10
g10
g10
g10
g11
g10
g10
g10
g10
g10
g10
g10
g10
g10
g10
g10
g10
g10
g10
g10
g10
g10
g10
g10
g11
g11
g10
g11
g11
g10
g10
g10
g10
g10
g11
g11
g10
g10
g10
g10
g10
g10
g10
g11
g10
g10
g10
g11
g10
g10
g10
g10
g10
g11
g11
g10
g10
g10
g10
g11
g11
g10
g10
g10
g10
g10
g10
g10
g10
g10
g10
g10
g11
g10
g10
g11
g10
g10
g10
g10
g10
g11
g10
g10
g10
g10
g10
g10
g10
g10
g10
g10
g10
g10
g10
g10
g11
g10
g10
g11
g10
g10
g11
g10
g11
g11
g10
g10
g10
g10
g11
g10
g11
g10
g10
g10
g10
g10
g10
g10
g11
g10
g10
g10
g10
g10
g10
g10
g10
g10
g10
g10
g10
g10
g10
g10
g11
g10
g10
g10
g10
g10
g11
g11
g11
g10
g10
g11
g10
g10
g10
g10
g11
g10
g10
g10
g11
g10
g10
g11
g10
g10
tp12
sS'saveData'
p13
S'figData.pkl'
p14
sS'cellGids'
p15
(lp16
I0
aI1
aI2
aI3
aI4
aI5
aI6
aI7
aI8
aI9
aI10
aI11
aI12
aI13
aI14
asS'numNetStims'
p17
I60
sS'saveFig'
p18
S'fig.png'
p19
sS'timeRange'
p20
(lp21
I0
aF269.7859921943597
asS'spkTimes'
p22
(F1.0515792101545216
F1.1622448391444031
F1.709577650270834
F1.9186957846705468
F2.1646736729244047
F2.1748157612097287
F2.1799031675710268
F3.414765519752841
F4.099325949917375
F5.254167877263345
F6.967795000783987
F8.611596411085557
F8.791650259083518
F8.850000000100032
F9.32284387854854
F10.404980027124239
F10.900000000099915
F11.788142041270916
F11.925000000099857
F12.411109113369214
F12.8241966671808
F12.975118637018454
F14.739373902396018
F14.925827724226473
F15.90000000009963
F17.23080304541479
F17.25354121547005
F17.937790982265923
F20.32006376324412
F21.067119736396442
F21.805925582077137
F25.183684790757134
F25.711796924105215
F27.004683981097017
F27.173116006009415
F27.614935693535983
F27.918693267847427
F28.55573373152592
F29.176214698065756
F29.700000000098846
F29.750966850578905
F30.086609621121937
F30.73971277395136
F30.945384152363914
F31.135861982334575
F33.250000000099
F33.4436344914532
F34.35000000009925
F35.149118186544655
F35.29365829366174
F35.64260218327391
F37.43026176152711
F37.64818311404095
F37.73806688470076
F37.757391446748514
F38.28536276086053
F39.49565562468022
F39.92500000010052
F40.350000000100614
F40.51299821040786
F41.0662035472283
F41.47597454199324
F42.18309596869739
F42.425000000101086
F42.7690253379309
F44.63906821201098
F45.14033379884286
F45.65000000010182
F45.807865872401706
F46.15561089037786
F46.23153062192617
F47.3250000001022
F47.39296081053602
F48.27108381806009
F50.32168510533727
F50.32500000010288
F50.62711415922401
F52.67780618966948
F53.05857436908482
F53.70000000010365
F53.72898665213742
F54.38583974419825
F54.69203533332633
F54.913768820717145
F55.07500000010396
F57.10940306617682
F57.80000000010458
F59.53368234426654
F61.162106454735714
F62.12641893365072
F62.66912546022683
F62.76818477642442
F63.45000000010587
F64.34307869567516
F64.8789971774948
F65.100453926536
F65.59655263294505
F67.1250000001067
F68.20000000010694
F68.31963995296823
F68.35449237315527
F68.97365858862486
F69.13861613017328
F69.88640188261212
F70.45000000010745
F70.57525122563875
F72.19362033473627
F76.37800296449228
F77.72561321586107
F78.63392935834321
F78.94881946545044
F79.16794489799219
F79.23169957902887
F79.70844719405977
F80.12278659821621
F80.20708742687572
F80.25246864842738
F80.25872303402463
F81.84025699822084
F82.63936733521166
F83.22500000011036
F83.32500000011038
F83.48583567791532
F84.45000000011063
F84.55000000011066
F85.01267124118341
F85.98806097361789
F86.10002643101993
F86.11466391324342
F86.3096733048846
F86.36020474294837
F87.14264307960693
F87.20000000011126
F88.60000000011158
F90.99631063171567
F91.47975630386304
F94.10000000011283
F94.63374564340695
F94.63663277698848
F94.74377220101456
F95.9801873552191
F96.29540685831479
F96.66557340313709
F98.28270318035241
F100.18064047195
F100.50001034977035
F101.9060111272222
F103.19490845213963
F104.04129522877932
F105.13464945392079
F105.21868565979373
F105.32500000011538
F105.50892295460994
F105.72874548226365
F107.703807132367
F107.77206004891381
F107.8219589030156
F107.8630694324035
F108.1970285597115
F108.21453370256094
F108.49608353556627
F108.7016811101999
F109.11861804513438
F109.3750000001163
F111.20000000011672
F112.5491302497179
F113.41033220279107
F113.9676887658192
F114.30589186574133
F115.12539489631337
F115.40330040324288
F116.03204829771424
F116.96918127080264
F117.00127332294718
F117.00923263866352
F117.11997160332228
F117.41667247614629
F117.81768502527056
F118.08335947476955
F119.01767416404695
F119.04482426654246
F119.27500000011855
F119.27500000011855
F120.3680701442496
F120.9475941644151
F122.45000000011927
F122.5750000001193
F127.91276224811466
F128.51957781226352
F131.45000000011737
F131.57745176942078
F132.50000000011642
F132.91872826737855
F134.9706589591397
F135.51017872875144
F136.54033473649955
F136.62875202836562
F136.80921968377186
F137.48692869315818
F137.8569586845285
F139.09155871705963
F139.13389466069214
F140.35606356934514
F140.47500000010916
F141.07985638426098
F141.73704589639425
F141.82500000010793
F142.58529406108664
F143.22590315046654
F143.25369415572123
F144.4895312878732
F144.57177994327327
F145.16950817235417
F145.24879893679926
F145.43261340113906
F145.64103997923803
F145.82949864150297
F146.74570152621823
F147.46869305744283
F147.49086850743015
F148.72500000010166
F148.87500000010152
F149.9651100476356
F150.86405322602695
F150.90000000009968
F152.27383064844685
F152.54652233238625
F152.92639692675692
F153.85225922341246
F154.14527669126127
F154.5929592153244
F154.95618607793045
F155.87500000009516
F157.03401518127805
F157.52388678618613
F158.6442549492162
F159.17500000009215
F160.28979681184046
F160.36746730197598
F160.64122356298748
F163.16967407826667
F165.07970164950922
F165.12500000008674
F165.23446477913336
F167.14142530951904
F167.81264933010934
F169.8515012201147
F171.09242565299851
F171.76273216094444
F171.7875582970159
F172.53813582558695
F172.84150889788845
F173.70695881399982
F176.19301879932829
F176.63124335384333
F176.7806070563856
F177.25823947265283
F178.08718132218905
F178.630655703248
F178.81419336794383
F179.0646665265406
F179.35166494990577
F179.87500000007333
F180.3500000000729
F180.52342425811207
F180.9000000000724
F181.15000000007217
F181.45745404664268
F181.87289207229585
F182.497707793932
F183.4891588870214
F183.49549561697685
F183.90000000006967
F183.92500000006964
F184.33045160529588
F185.66043010355304
F186.01958366446394
F186.0373368677865
F187.78096382458492
F188.05077028138288
F188.780707599121
F188.97500000006505
F189.984994349711
F190.1614679634018
F190.4016648641788
F190.75000000006344
F190.76841631991547
F191.0761128623321
F191.26181350258622
F191.3578543737051
F191.57181864849156
F192.27500000006205
F192.95000000006144
F193.2373953298333
F193.35956842290648
F193.39510397469434
F194.15743587908764
F195.5250000000591
F197.9500000000569
F198.4048987299406
F199.04616978920774
F199.3356513228636
F200.25039527140882
F203.09774802335107
F203.17198023141376
F204.1533503196934
F204.49245885712523
F204.51943436484007
F205.75487827978895
F206.17884250416546
F206.22500000004936
F208.14127811874198
F209.5616509359585
F209.57500000004632
F210.13674805956708
F211.89438452805007
F211.91736354340242
F212.07049539294238
F212.55017334821864
F213.92500000004236
F214.08340185837486
F217.6999501653823
F218.2215738481583
F219.37491197122029
F219.55832750905
F219.88062719316457
F221.1747507501322
F221.3922855297423
F223.53305550914993
F224.047669974583
F224.9317150652987
F225.67557982687356
F225.90193129518013
F226.00018192581112
F226.22500000003117
F226.52611259327657
F226.60043735696235
F228.1750000000294
F228.803998140906
F229.39657349176758
F229.5000000000282
F230.2736461479889
F230.9250000000269
F231.27500000002658
F231.53252706481436
F231.57685424716266
F232.31284579168528
F232.485208129219
F233.80000000002428
F234.48830784518753
F234.50000000002365
F235.75994396025945
F236.56757616790318
F238.01167562794444
F240.08369966919236
F240.33312669716662
F242.2909799072633
F242.31547564518976
F242.3500000000165
F244.44755555201283
F245.0246218843355
F245.2656811613782
F245.41626302059544
F245.6423014509691
F245.91642099765673
F247.30231420215773
F247.31845557347876
F247.57481325154868
F247.7054605524567
F247.8625134755625
F248.0941357402751
F250.4025720115417
F250.42485712720372
F250.8027292809978
F251.50000000000819
F251.81788509248292
F252.54373697058867
F253.1160222382067
F253.293629422397
F254.69697802170694
F255.000000000005
F255.15000000000487
F255.40000000000464
F255.530563008025
F256.26080182335375
F257.7500000000025
F257.824879883688
F258.0561801351334
F260.0182730989181
F260.29186808493245
F262.42499999999825
F262.9278044442436
F262.96502994183226
F264.28380505776073
F265.62499999999534
F265.95181266298255
F266.456756667368
F268.224999999993
F268.94089304739487
F269.7859921943597
tp23
sS'spkInds'
p24
(I62
I32
I72
I55
I15
I66
I46
I73
I34
I26
I44
I37
I58
I9
I54
I39
I7
I16
I0
I59
I33
I48
I28
I69
I10
I23
I57
I41
I43
I67
I64
I31
I18
I65
I32
I53
I66
I56
I40
I6
I47
I21
I46
I74
I36
I13
I17
I8
I61
I29
I27
I24
I38
I54
I63
I20
I48
I5
I0
I26
I49
I15
I16
I10
I72
I59
I51
I11
I43
I35
I73
I12
I44
I30
I34
I2
I52
I53
I41
I4
I50
I71
I18
I64
I9
I58
I1
I66
I37
I28
I74
I60
I7
I21
I69
I45
I54
I14
I0
I36
I23
I22
I68
I40
I13
I46
I27
I61
I29
I47
I20
I19
I67
I34
I43
I55
I52
I32
I65
I16
I8
I4
I73
I9
I6
I51
I24
I30
I64
I38
I31
I17
I12
I5
I72
I54
I0
I50
I59
I60
I57
I22
I33
I41
I15
I63
I40
I36
I27
I25
I35
I13
I70
I53
I32
I68
I26
I42
I23
I74
I65
I19
I44
I2
I6
I18
I56
I73
I67
I31
I21
I72
I58
I38
I37
I46
I62
I34
I16
I66
I71
I5
I7
I69
I24
I1
I9
I47
I48
I10
I43
I8
I30
I57
I39
I20
I70
I23
I55
I54
I29
I65
I63
I0
I50
I64
I6
I21
I16
I17
I28
I35
I15
I66
I62
I22
I41
I36
I67
I71
I2
I13
I24
I56
I1
I19
I44
I60
I45
I31
I49
I46
I14
I27
I42
I25
I11
I59
I34
I74
I61
I72
I9
I18
I53
I57
I64
I16
I55
I70
I58
I17
I67
I35
I32
I15
I54
I52
I37
I63
I19
I62
I0
I2
I71
I7
I4
I44
I45
I31
I42
I56
I14
I1
I28
I30
I24
I48
I60
I65
I46
I10
I38
I27
I22
I6
I51
I59
I43
I50
I41
I5
I12
I39
I47
I36
I18
I13
I8
I74
I66
I25
I61
I16
I52
I68
I67
I32
I23
I71
I4
I53
I73
I1
I20
I45
I28
I24
I56
I14
I31
I30
I72
I21
I17
I70
I44
I57
I65
I60
I49
I25
I38
I19
I6
I34
I50
I5
I36
I39
I11
I16
I13
I9
I37
I43
I51
I40
I7
I68
I12
I42
I66
I59
I53
I45
I15
I74
I14
I58
I33
I29
I46
I30
I61
I73
I55
I70
I69
I67
I71
I60
I49
I20
I1
I41
I54
I38
I26
I52
I11
I0
I5
I57
I23
I4
I32
I24
I68
I36
I13
I65
I42
I43
I6
I37
I66
I7
I27
I47
tp25
sS'include'
p26
(lp27
S'allNetStims'
p28
a(S'PYR'
p29
(lp30
I0
aI1
aI2
aI3
aI4
aI5
aI6
aI7
aI8
aI9
aI10
aI11
aI12
aI13
aI14
atp31
as.