Certificate:
    Data:
        Version: 3 (0x2)
        Serial Number: 268435669 (0x100000d5)
    Signature Algorithm: sha1WithRSAEncryption
        Issuer: C=DE, ST=Hessen, O=privacyidea, CN=CA001
        Validity
            Not Before: May 29 22:15:40 2016 GMT
            Not After : May 29 22:15:40 2017 GMT
        Subject: OU=realm1, CN=cornelius/emailAddress=user@localhost.localdomain
        Subject Public Key Info:
            Public Key Algorithm: rsaEncryption
                Public-Key: (2048 bit)
                Modulus:
                    00:c1:1b:ea:24:7f:6c:09:46:17:71:42:8e:11:e5:
                    66:a5:03:c5:7d:34:1a:a3:0e:ff:91:a8:3b:61:3d:
                    5d:96:4c:72:dc:ee:f1:0f:e2:00:8c:18:d9:82:16:
                    0e:08:73:c7:33:f7:6a:c8:88:dd:38:ed:a2:0a:9e:
                    6d:3a:c6:69:21:76:e9:9e:b4:69:bc:f4:53:0f:49:
                    72:91:28:0c:2f:37:42:03:5c:8c:74:88:e4:43:94:
                    3f:c6:31:bc:3a:98:58:70:15:01:7e:f1:c7:ad:5b:
                    2a:5d:a8:e2:94:03:1d:a3:e5:31:82:7e:7b:95:92:
                    5b:c3:e1:cf:fa:5b:48:4b:4f:81:83:ca:03:65:9e:
                    26:8f:8d:4f:03:0e:92:b3:36:c3:26:14:9a:dc:6a:
                    67:8b:8e:89:f1:a1:29:62:a9:9c:0f:55:41:4b:a7:
                    4d:18:a4:d2:40:be:00:9e:5b:d1:9b:dc:3d:7b:71:
                    a1:ca:0f:64:af:93:9e:d5:c2:34:c3:1b:0b:0a:dd:
                    72:24:bc:a0:1c:c6:13:b6:21:d1:ec:e0:ad:a1:02:
                    be:de:dc:02:7c:bc:01:37:a9:77:a2:58:d5:83:62:
                    ee:8b:2a:58:9a:90:a0:ee:67:9c:11:8a:89:85:40:
                    79:14:a5:7c:a7:a3:a4:ad:28:61:9e:61:0a:d5:87:
                    de:79
                Exponent: 65537 (0x10001)
        X509v3 extensions:
            X509v3 Key Usage: 
                Digital Signature, Key Encipherment
            X509v3 Basic Constraints: 
                CA:FALSE
            Netscape Cert Type: 
                SSL Server
            Netscape Comment: 
                OpenSSL Generated Server Certificate
            X509v3 Subject Key Identifier: 
                37:B7:58:83:10:BA:53:9C:5A:91:03:45:3A:37:61:E8:74:D8:00:5E
            X509v3 Authority Key Identifier: 
                keyid:F4:A7:C0:CC:91:46:AF:64:F3:91:F2:27:F8:C8:B2:6F:8A:87:32:73
                DirName:/C=DE/ST=Hessen/O=privacyidea/CN=CA001
                serial:FB:C8:EB:AC:83:CD:12:07

            X509v3 Extended Key Usage: 
                TLS Web Server Authentication
    Signature Algorithm: sha1WithRSAEncryption
         3b:05:7d:50:b7:07:b4:d2:c2:1b:dc:dc:de:ed:9c:a9:18:b6:
         99:7b:c2:e0:7e:2d:62:af:c6:c7:5b:af:e3:93:fc:bf:eb:2e:
         85:18:e0:72:82:cf:22:45:4b:71:ed:67:63:f2:8a:06:d8:bb:
         9a:34:62:c2:5b:dd:14:28:3c:2b:77:26:5e:fd:ae:51:be:65:
         ab:ca:79:dc:54:fd:50:b2:e0:0e:58:b4:f7:0d:f5:33:49:40:
         96:63:c4:02:1c:2a:81:87:33:dc:8e:e7:f5:32:9e:89:63:08:
         be:91:34:55:50:41:5b:03:8a:13:3d:01:a5:b6:8c:68:91:43:
         e2:23:9f:47:0d:cd:43:9b:52:62:d1:cb:07:2b:e4:39:c1:03:
         cc:d8:c0:c7:f5:de:4c:f3:78:5e:70:05:5b:8b:f7:54:ad:17:
         e4:13:7e:8a:69:eb:16:15:60:b8:4c:23:56:51:57:93:85:fe:
         d2:83:3c:aa:1b:56:8a:d9:e0:b8:ff:fb:87:8d:75:7d:1b:71:
         ad:ec:fc:eb:cc:4b:61:9b:78:8e:9a:c3:7e:22:24:35:1d:5c:
         23:d8:ed:cc:61:4f:5a:c4:97:56:c8:d2:f5:95:24:2e:61:a7:
         78:55:37:30:ff:2e:8a:09:b1:f2:14:8d:d7:b1:83:2b:a9:bd:
         79:7d:75:5d
-----BEGIN CERTIFICATE-----
MIIEIjCCAwqgAwIBAgIEEAAA1TANBgkqhkiG9w0BAQUFADBEMQswCQYDVQQGEwJE
RTEPMA0GA1UECAwGSGVzc2VuMRQwEgYDVQQKDAtwcml2YWN5aWRlYTEOMAwGA1UE
AwwFQ0EwMDEwHhcNMTYwNTI5MjIxNTQwWhcNMTcwNTI5MjIxNTQwWjBQMQ8wDQYD
VQQLEwZyZWFsbTExEjAQBgNVBAMTCWNvcm5lbGl1czEpMCcGCSqGSIb3DQEJARYa
dXNlckBsb2NhbGhvc3QubG9jYWxkb21haW4wggEiMA0GCSqGSIb3DQEBAQUAA4IB
DwAwggEKAoIBAQDBG+okf2wJRhdxQo4R5WalA8V9NBqjDv+RqDthPV2WTHLc7vEP
4gCMGNmCFg4Ic8cz92rIiN047aIKnm06xmkhdumetGm89FMPSXKRKAwvN0IDXIx0
iORDlD/GMbw6mFhwFQF+8cetWypdqOKUAx2j5TGCfnuVklvD4c/6W0hLT4GDygNl
niaPjU8DDpKzNsMmFJrcameLjonxoSliqZwPVUFLp00YpNJAvgCeW9Gb3D17caHK
D2Svk57VwjTDGwsK3XIkvKAcxhO2IdHs4K2hAr7e3AJ8vAE3qXeiWNWDYu6LKlia
kKDuZ5wRiomFQHkUpXyno6StKGGeYQrVh955AgMBAAGjggEOMIIBCjALBgNVHQ8E
BAMCBaAwCQYDVR0TBAIwADARBglghkgBhvhCAQEEBAMCBkAwMwYJYIZIAYb4QgEN
BCYWJE9wZW5TU0wgR2VuZXJhdGVkIFNlcnZlciBDZXJ0aWZpY2F0ZTAdBgNVHQ4E
FgQUN7dYgxC6U5xakQNFOjdh6HTYAF4wdAYDVR0jBG0wa4AU9KfAzJFGr2TzkfIn
+Miyb4qHMnOhSKRGMEQxCzAJBgNVBAYTAkRFMQ8wDQYDVQQIDAZIZXNzZW4xFDAS
BgNVBAoMC3ByaXZhY3lpZGVhMQ4wDAYDVQQDDAVDQTAwMYIJAPvI66yDzRIHMBMG
A1UdJQQMMAoGCCsGAQUFBwMBMA0GCSqGSIb3DQEBBQUAA4IBAQA7BX1Qtwe00sIb
3Nze7ZypGLaZe8Lgfi1ir8bHW6/jk/y/6y6FGOBygs8iRUtx7Wdj8ooG2LuaNGLC
W90UKDwrdyZe/a5RvmWrynncVP1QsuAOWLT3DfUzSUCWY8QCHCqBhzPcjuf1Mp6J
Ywi+kTRVUEFbA4oTPQGltoxokUPiI59HDc1Dm1Ji0csHK+Q5wQPM2MDH9d5M83he
cAVbi/dUrRfkE36KaesWFWC4TCNWUVeThf7SgzyqG1aK2eC4//uHjXV9G3Gt7Pzr
zEthm3iOmsN+IiQ1HVwj2O3MYU9axJdWyNL1lSQuYad4VTcw/y6KCbHyFI3XsYMr
qb15fXVd
-----END CERTIFICATE-----
