Certificate:
    Data:
        Version: 3 (0x2)
        Serial Number: 268435663 (0x100000cf)
    Signature Algorithm: sha1WithRSAEncryption
        Issuer: C=DE, ST=Hessen, O=privacyidea, CN=CA001
        Validity
            Not Before: May 30 07:23:50 2016 GMT
            Not After : May 30 07:23:50 2017 GMT
        Subject: CN=selfservice,CN=user,O=realm1/emailAddress=meine
        Subject Public Key Info:
            Public Key Algorithm: rsaEncryption
                Public-Key: (2048 bit)
                Modulus:
                    00:cf:3c:d4:33:0e:12:c4:e6:da:cd:b6:56:a1:1c:
                    26:bb:26:1c:8a:4a:73:a8:58:8a:b6:1e:b3:8b:99:
                    d2:1d:07:c2:92:89:79:c0:69:d8:c8:df:28:61:98:
                    1e:b3:fe:ae:2b:bd:78:a9:f7:6e:47:dc:a3:a0:16:
                    8c:85:02:c1:4e:92:fd:72:6e:f0:c8:03:29:9b:b8:
                    00:6e:c0:83:95:c8:34:20:36:9c:b3:e5:e4:e6:76:
                    73:a3:1a:ad:40:96:e0:53:54:00:ec:76:79:9a:c6:
                    0d:7e:b6:bd:29:ec:83:f3:cb:89:a4:cb:6c:00:ba:
                    0c:c5:78:0f:ff:69:b8:94:f4:04:70:43:3f:d8:9e:
                    d7:a7:fb:5d:ce:75:8e:da:e7:c4:07:b1:9d:de:6f:
                    88:4b:b6:4d:9a:cf:f9:bc:fa:9f:cd:32:6d:f6:3a:
                    0b:0d:23:42:78:ec:97:42:bf:0e:4d:60:56:e1:d3:
                    02:f2:19:cb:84:57:90:e5:70:a1:a2:83:35:86:e2:
                    da:86:9f:f9:8a:c4:79:b3:52:28:da:cb:bb:34:ca:
                    d3:da:91:4a:cf:8d:76:a2:b2:6b:9b:f9:96:fd:09:
                    2a:da:11:23:4d:f0:cb:d6:b2:b1:0e:12:6c:9a:19:
                    65:98:87:ca:e4:ee:24:ce:44:ac:90:8f:9d:1b:c5:
                    2a:9d
                Exponent: 65537 (0x10001)
        X509v3 extensions:
            X509v3 Key Usage: 
                Digital Signature, Key Encipherment
            X509v3 Basic Constraints: 
                CA:FALSE
            Netscape Cert Type: 
                SSL Server
            Netscape Comment: 
                OpenSSL Generated Server Certificate
            X509v3 Subject Key Identifier: 
                4D:07:90:AD:FF:1D:0D:E7:1A:DD:D6:2E:FA:BA:34:CB:AA:1F:24:C6
            X509v3 Authority Key Identifier: 
                keyid:F4:A7:C0:CC:91:46:AF:64:F3:91:F2:27:F8:C8:B2:6F:8A:87:32:73
                DirName:/C=DE/ST=Hessen/O=privacyidea/CN=CA001
                serial:FB:C8:EB:AC:83:CD:12:07

            X509v3 Extended Key Usage: 
                TLS Web Server Authentication
    Signature Algorithm: sha1WithRSAEncryption
         85:35:68:2c:57:7a:0c:80:98:3d:0c:d3:43:73:59:90:db:89:
         cf:d9:89:f7:d3:4b:b6:40:64:b6:96:d8:66:9e:b9:66:cf:83:
         cf:7f:f6:75:d6:93:a4:54:97:ec:30:d6:c9:f3:6b:cd:37:21:
         1c:fb:62:37:a4:8f:3d:ea:11:3b:f1:24:c3:5e:a7:fa:b7:d0:
         16:c3:e3:1e:0e:13:6f:1c:12:81:0e:8d:7c:52:fd:81:6e:4a:
         2f:7a:97:57:4a:b1:e6:fe:c9:0d:38:a0:c4:05:95:51:78:87:
         a4:c3:f1:bb:53:2a:e8:6b:32:c5:e2:7b:34:34:72:34:ec:18:
         a5:14:ff:3c:54:ff:8c:b5:f7:8e:d2:f7:7c:b0:fe:79:69:ad:
         79:c5:2d:b9:01:59:8e:70:ff:53:77:82:36:48:d6:b7:b8:34:
         55:bd:db:0a:92:44:7f:9d:28:7b:3f:48:85:72:eb:1d:6f:a6:
         58:e4:56:7b:34:3e:a5:ce:48:d4:68:c1:94:63:f5:95:59:28:
         66:85:4c:a3:05:68:84:d3:e6:3d:97:79:f5:d4:2f:fa:11:54:
         5f:b3:89:30:d8:c0:d0:5f:3c:59:ae:8a:61:92:ee:a6:c9:0f:
         36:fb:f1:5f:b7:68:b8:50:d9:cb:94:92:2c:41:a6:79:db:b4:
         9f:fc:13:1a
-----BEGIN CERTIFICATE-----
MIIEDzCCAvegAwIBAgIEEAAAzzANBgkqhkiG9w0BAQUFADBEMQswCQYDVQQGEwJE
RTEPMA0GA1UECAwGSGVzc2VuMRQwEgYDVQQKDAtwcml2YWN5aWRlYTEOMAwGA1UE
AwwFQ0EwMDEwHhcNMTYwNTMwMDcyMzUwWhcNMTcwNTMwMDcyMzUwWjA9MSUwIwYD
VQQDExxzZWxmc2VydmljZSxDTj11c2VyLE89cmVhbG0xMRQwEgYJKoZIhvcNAQkB
FgVtZWluZTCCASIwDQYJKoZIhvcNAQEBBQADggEPADCCAQoCggEBAM881DMOEsTm
2s22VqEcJrsmHIpKc6hYirYes4uZ0h0HwpKJecBp2MjfKGGYHrP+riu9eKn3bkfc
o6AWjIUCwU6S/XJu8MgDKZu4AG7Ag5XINCA2nLPl5OZ2c6MarUCW4FNUAOx2eZrG
DX62vSnsg/PLiaTLbAC6DMV4D/9puJT0BHBDP9ie16f7Xc51jtrnxAexnd5viEu2
TZrP+bz6n80ybfY6Cw0jQnjsl0K/Dk1gVuHTAvIZy4RXkOVwoaKDNYbi2oaf+YrE
ebNSKNrLuzTK09qRSs+NdqKya5v5lv0JKtoRI03wy9aysQ4SbJoZZZiHyuTuJM5E
rJCPnRvFKp0CAwEAAaOCAQ4wggEKMAsGA1UdDwQEAwIFoDAJBgNVHRMEAjAAMBEG
CWCGSAGG+EIBAQQEAwIGQDAzBglghkgBhvhCAQ0EJhYkT3BlblNTTCBHZW5lcmF0
ZWQgU2VydmVyIENlcnRpZmljYXRlMB0GA1UdDgQWBBRNB5Ct/x0N5xrd1i76ujTL
qh8kxjB0BgNVHSMEbTBrgBT0p8DMkUavZPOR8if4yLJviocyc6FIpEYwRDELMAkG
A1UEBhMCREUxDzANBgNVBAgMBkhlc3NlbjEUMBIGA1UECgwLcHJpdmFjeWlkZWEx
DjAMBgNVBAMMBUNBMDAxggkA+8jrrIPNEgcwEwYDVR0lBAwwCgYIKwYBBQUHAwEw
DQYJKoZIhvcNAQEFBQADggEBAIU1aCxXegyAmD0M00NzWZDbic/ZiffTS7ZAZLaW
2GaeuWbPg89/9nXWk6RUl+ww1snza803IRz7Yjekjz3qETvxJMNep/q30BbD4x4O
E28cEoEOjXxS/YFuSi96l1dKseb+yQ04oMQFlVF4h6TD8btTKuhrMsXiezQ0cjTs
GKUU/zxU/4y1947S93yw/nlprXnFLbkBWY5w/1N3gjZI1re4NFW92wqSRH+dKHs/
SIVy6x1vpljkVns0PqXOSNRowZRj9ZVZKGaFTKMFaITT5j2XefXUL/oRVF+ziTDY
wNBfPFmuimGS7qbJDzb78V+3aLhQ2cuUkixBpnnbtJ/8Exo=
-----END CERTIFICATE-----
