Certificate:
    Data:
        Version: 3 (0x2)
        Serial Number: 268435660 (0x100000cc)
    Signature Algorithm: sha1WithRSAEncryption
        Issuer: C=DE, ST=Hessen, O=privacyidea, CN=CA001
        Validity
            Not Before: May 30 07:12:10 2016 GMT
            Not After : May 30 07:12:10 2017 GMT
        Subject: CN=Steve Test/emailAddress=steve@openssl.org
        Subject Public Key Info:
            Public Key Algorithm: rsaEncryption
                Public-Key: (2048 bit)
                Modulus:
                    00:d2:81:89:20:51:48:0f:73:f4:11:32:24:d5:1f:
                    1c:fd:5c:f5:b6:e6:c5:f0:52:81:dc:d2:af:66:4a:
                    7c:93:31:61:5c:af:d1:6d:06:70:03:60:7c:72:0c:
                    88:dd:49:cd:9e:02:6c:d2:5a:d7:53:0f:f3:da:be:
                    69:64:b5:0f:0c:00:e3:b3:50:47:a3:b3:9b:ba:13:
                    50:d6:58:5a:4b:ab:39:e0:11:ca:0a:27:67:03:78:
                    22:66:6d:92:1e:1b:5c:49:ae:e6:6b:d1:8e:3b:9d:
                    06:d3:c6:ac:4d:53:43:10:ab:e8:96:c1:87:82:97:
                    99:8f:20:d3:99:12:37:31:84:e1:8a:ff:29:03:5f:
                    22:90:3e:7f:9b:e0:20:c1:ad:dc:ae:4c:39:1a:31:
                    96:17:02:8c:b2:d9:b4:0d:20:12:9b:7d:86:54:fd:
                    33:fd:c1:2a:62:46:f8:60:96:cf:6e:01:6f:22:df:
                    13:47:e7:97:ec:05:72:23:a3:62:f8:fa:ef:ac:9c:
                    72:f0:37:cb:2f:37:cf:90:a8:27:51:86:c6:d7:78:
                    08:8f:7e:25:a2:15:70:a2:fb:1c:b6:15:5e:a0:97:
                    8b:81:4c:09:28:8a:27:3b:94:bc:71:db:5b:71:37:
                    9a:2b:16:e0:6f:b5:c9:f5:4b:4f:20:ba:65:cf:af:
                    ad:ad
                Exponent: 65537 (0x10001)
        X509v3 extensions:
            X509v3 Key Usage: 
                Digital Signature, Key Encipherment
            X509v3 Basic Constraints: 
                CA:FALSE
            Netscape Cert Type: 
                SSL Server
            Netscape Comment: 
                OpenSSL Generated Server Certificate
            X509v3 Subject Key Identifier: 
                E5:25:6D:3E:AF:0D:DD:3F:4C:F2:45:19:39:D5:14:DB:7E:9C:C0:AD
            X509v3 Authority Key Identifier: 
                keyid:F4:A7:C0:CC:91:46:AF:64:F3:91:F2:27:F8:C8:B2:6F:8A:87:32:73
                DirName:/C=DE/ST=Hessen/O=privacyidea/CN=CA001
                serial:FB:C8:EB:AC:83:CD:12:07

            X509v3 Extended Key Usage: 
                TLS Web Server Authentication
    Signature Algorithm: sha1WithRSAEncryption
         43:02:a7:a1:45:28:ef:4a:89:65:e4:b3:cb:c9:06:2b:43:60:
         1f:73:c8:1c:e5:f5:28:d1:95:8b:43:a1:63:9a:70:cd:fc:b9:
         65:99:aa:a8:55:96:0d:30:18:6d:af:4b:bd:3a:37:a8:90:f5:
         4e:a2:e5:c9:97:8b:ac:a5:f5:03:7f:be:ef:f8:0e:a9:4b:39:
         30:94:1e:bf:97:2b:f4:9c:81:97:53:1f:72:8f:70:c4:16:36:
         37:f7:06:6d:4c:bb:da:14:8f:9e:33:84:76:77:63:69:f6:b3:
         a7:45:76:78:27:5f:bd:17:cd:6a:dd:af:a2:da:ad:90:a9:d4:
         27:61:30:10:3d:b5:2c:dc:a0:a0:1f:3b:4b:2a:32:6d:05:19:
         8f:4a:7a:8c:bd:45:1a:98:93:c9:56:01:63:da:17:57:fb:a8:
         a3:5e:3b:72:8d:1d:e3:c8:a1:f2:61:10:e3:3c:06:2c:ba:12:
         94:4c:64:c7:8b:1a:16:06:a9:46:91:0a:30:94:a1:9d:47:37:
         7e:6e:3f:56:2f:ca:68:f2:37:ad:ce:8e:a0:0b:4b:27:ea:4a:
         e7:7e:c7:e3:c6:80:a7:1d:87:ec:24:0e:61:ab:18:0e:b3:77:
         22:c1:98:be:87:7b:f3:a0:d4:c8:26:18:bd:22:b6:75:c6:e2:
         e1:d9:cf:bb
-----BEGIN CERTIFICATE-----
MIIECTCCAvGgAwIBAgIEEAAAzDANBgkqhkiG9w0BAQUFADBEMQswCQYDVQQGEwJE
RTEPMA0GA1UECAwGSGVzc2VuMRQwEgYDVQQKDAtwcml2YWN5aWRlYTEOMAwGA1UE
AwwFQ0EwMDEwHhcNMTYwNTMwMDcxMjEwWhcNMTcwNTMwMDcxMjEwWjA3MRMwEQYD
VQQDEwpTdGV2ZSBUZXN0MSAwHgYJKoZIhvcNAQkBFhFzdGV2ZUBvcGVuc3NsLm9y
ZzCCASIwDQYJKoZIhvcNAQEBBQADggEPADCCAQoCggEBANKBiSBRSA9z9BEyJNUf
HP1c9bbmxfBSgdzSr2ZKfJMxYVyv0W0GcANgfHIMiN1JzZ4CbNJa11MP89q+aWS1
DwwA47NQR6Ozm7oTUNZYWkurOeARygonZwN4ImZtkh4bXEmu5mvRjjudBtPGrE1T
QxCr6JbBh4KXmY8g05kSNzGE4Yr/KQNfIpA+f5vgIMGt3K5MORoxlhcCjLLZtA0g
Ept9hlT9M/3BKmJG+GCWz24BbyLfE0fnl+wFciOjYvj676yccvA3yy83z5CoJ1GG
xtd4CI9+JaIVcKL7HLYVXqCXi4FMCSiKJzuUvHHbW3E3misW4G+1yfVLTyC6Zc+v
ra0CAwEAAaOCAQ4wggEKMAsGA1UdDwQEAwIFoDAJBgNVHRMEAjAAMBEGCWCGSAGG
+EIBAQQEAwIGQDAzBglghkgBhvhCAQ0EJhYkT3BlblNTTCBHZW5lcmF0ZWQgU2Vy
dmVyIENlcnRpZmljYXRlMB0GA1UdDgQWBBTlJW0+rw3dP0zyRRk51RTbfpzArTB0
BgNVHSMEbTBrgBT0p8DMkUavZPOR8if4yLJviocyc6FIpEYwRDELMAkGA1UEBhMC
REUxDzANBgNVBAgMBkhlc3NlbjEUMBIGA1UECgwLcHJpdmFjeWlkZWExDjAMBgNV
BAMMBUNBMDAxggkA+8jrrIPNEgcwEwYDVR0lBAwwCgYIKwYBBQUHAwEwDQYJKoZI
hvcNAQEFBQADggEBAEMCp6FFKO9KiWXks8vJBitDYB9zyBzl9SjRlYtDoWOacM38
uWWZqqhVlg0wGG2vS706N6iQ9U6i5cmXi6yl9QN/vu/4DqlLOTCUHr+XK/ScgZdT
H3KPcMQWNjf3Bm1Mu9oUj54zhHZ3Y2n2s6dFdngnX70XzWrdr6LarZCp1CdhMBA9
tSzcoKAfO0sqMm0FGY9Keoy9RRqYk8lWAWPaF1f7qKNeO3KNHePIofJhEOM8Biy6
EpRMZMeLGhYGqUaRCjCUoZ1HN35uP1YvymjyN63OjqALSyfqSud+x+PGgKcdh+wk
DmGrGA6zdyLBmL6He/Og1MgmGL0itnXG4uHZz7s=
-----END CERTIFICATE-----
