Certificate:
    Data:
        Version: 3 (0x2)
        Serial Number: 268435662 (0x100000ce)
    Signature Algorithm: sha1WithRSAEncryption
        Issuer: C=DE, ST=Hessen, O=privacyidea, CN=CA001
        Validity
            Not Before: May 30 07:15:41 2016 GMT
            Not After : May 30 07:15:41 2017 GMT
        Subject: OU=realm1, CN=cornelius/emailAddress=user@localhost.localdomain
        Subject Public Key Info:
            Public Key Algorithm: rsaEncryption
                Public-Key: (2048 bit)
                Modulus:
                    00:ba:0a:09:a6:a3:10:94:ee:69:d4:6a:11:0a:a9:
                    40:51:4a:0b:32:e1:85:65:04:32:56:d5:ed:91:a8:
                    db:eb:5b:3c:b1:35:63:d3:a2:35:5e:36:7d:48:80:
                    d4:c4:f5:8b:7c:87:a0:11:76:cd:13:18:07:3f:0e:
                    fb:1f:00:ef:cb:09:fc:77:c8:d7:27:8d:e1:ed:f7:
                    3b:e5:9c:32:98:40:cc:97:92:f4:35:33:fb:68:df:
                    15:0b:a7:d8:c7:6f:28:2f:cd:52:87:b2:8a:04:b8:
                    a1:18:e1:ff:0c:91:26:4a:74:50:c2:29:e2:92:16:
                    c2:7f:19:36:62:a3:31:43:03:8b:a2:d6:b0:ac:12:
                    d8:d3:17:33:7f:ff:99:28:7d:54:f9:e5:7a:5a:3f:
                    6f:40:c8:5e:58:09:21:3d:fd:eb:c8:94:49:af:10:
                    58:f6:50:7c:a0:50:82:f9:54:22:4f:6c:8c:8b:13:
                    ff:1e:7a:99:c1:83:19:a0:bd:42:9b:e0:b5:bc:26:
                    9e:66:c4:75:c1:ab:5c:a0:15:e8:63:93:63:1f:38:
                    df:f7:e5:9e:38:c1:e5:5d:af:95:30:f0:31:b4:c8:
                    a9:56:a8:c6:04:0c:aa:bc:c0:5b:46:e4:8b:27:f8:
                    4c:4f:c4:61:50:f5:ac:fc:52:97:d3:50:7e:5f:86:
                    60:e1
                Exponent: 65537 (0x10001)
        X509v3 extensions:
            X509v3 Key Usage: 
                Digital Signature, Key Encipherment
            X509v3 Basic Constraints: 
                CA:FALSE
            Netscape Cert Type: 
                SSL Server
            Netscape Comment: 
                OpenSSL Generated Server Certificate
            X509v3 Subject Key Identifier: 
                90:6B:F0:CF:F7:68:00:10:93:95:16:5D:F9:7B:E8:BD:F0:55:4D:B7
            X509v3 Authority Key Identifier: 
                keyid:F4:A7:C0:CC:91:46:AF:64:F3:91:F2:27:F8:C8:B2:6F:8A:87:32:73
                DirName:/C=DE/ST=Hessen/O=privacyidea/CN=CA001
                serial:FB:C8:EB:AC:83:CD:12:07

            X509v3 Extended Key Usage: 
                TLS Web Server Authentication
    Signature Algorithm: sha1WithRSAEncryption
         88:f9:7a:e5:fb:f4:ce:bc:52:b0:a2:81:ee:35:4b:2f:8b:bd:
         d9:8b:ed:e8:d8:0e:31:71:d1:5e:3c:28:a9:4e:62:b0:52:51:
         e1:cd:dd:7d:62:ba:e5:85:2c:30:4c:5f:0b:99:93:35:48:e7:
         f9:f8:20:9d:5b:3f:20:7f:e8:1c:97:fe:0e:90:cf:39:02:c4:
         45:5d:22:6a:e1:53:38:af:c3:69:9d:9d:cb:22:4c:87:81:b5:
         8f:6f:07:7a:40:c1:c2:4e:c7:37:6b:43:4b:b6:4f:9b:f1:1f:
         4f:f0:a6:50:a1:65:b9:1c:b1:0c:34:5f:a2:f0:77:57:24:99:
         02:62:08:c0:05:e0:24:4e:e7:0e:88:bf:f4:e5:51:56:11:68:
         2c:42:1d:ac:7b:7f:49:f3:cf:16:5c:7c:56:bb:aa:82:cc:0c:
         06:35:a2:a5:86:41:5c:8c:dc:a4:2b:61:e9:7b:39:85:8a:ef:
         fb:e0:cd:72:30:ac:84:13:fe:ef:3a:5f:dd:ad:f8:76:16:95:
         bc:3a:c3:26:5c:51:a1:9f:9b:e0:d4:ea:1a:a4:9a:4a:c6:10:
         d7:a0:ca:35:14:82:c6:6e:0b:eb:41:7c:1e:9a:6c:50:c7:fc:
         85:b6:47:5c:c5:34:9f:52:96:1a:2d:d6:0a:75:ac:40:56:45:
         04:cf:21:c8
-----BEGIN CERTIFICATE-----
MIIEIjCCAwqgAwIBAgIEEAAAzjANBgkqhkiG9w0BAQUFADBEMQswCQYDVQQGEwJE
RTEPMA0GA1UECAwGSGVzc2VuMRQwEgYDVQQKDAtwcml2YWN5aWRlYTEOMAwGA1UE
AwwFQ0EwMDEwHhcNMTYwNTMwMDcxNTQxWhcNMTcwNTMwMDcxNTQxWjBQMQ8wDQYD
VQQLEwZyZWFsbTExEjAQBgNVBAMTCWNvcm5lbGl1czEpMCcGCSqGSIb3DQEJARYa
dXNlckBsb2NhbGhvc3QubG9jYWxkb21haW4wggEiMA0GCSqGSIb3DQEBAQUAA4IB
DwAwggEKAoIBAQC6CgmmoxCU7mnUahEKqUBRSgsy4YVlBDJW1e2RqNvrWzyxNWPT
ojVeNn1IgNTE9Yt8h6ARds0TGAc/DvsfAO/LCfx3yNcnjeHt9zvlnDKYQMyXkvQ1
M/to3xULp9jHbygvzVKHsooEuKEY4f8MkSZKdFDCKeKSFsJ/GTZiozFDA4ui1rCs
EtjTFzN//5kofVT55XpaP29AyF5YCSE9/evIlEmvEFj2UHygUIL5VCJPbIyLE/8e
epnBgxmgvUKb4LW8Jp5mxHXBq1ygFehjk2MfON/35Z44weVdr5Uw8DG0yKlWqMYE
DKq8wFtG5Isn+ExPxGFQ9az8UpfTUH5fhmDhAgMBAAGjggEOMIIBCjALBgNVHQ8E
BAMCBaAwCQYDVR0TBAIwADARBglghkgBhvhCAQEEBAMCBkAwMwYJYIZIAYb4QgEN
BCYWJE9wZW5TU0wgR2VuZXJhdGVkIFNlcnZlciBDZXJ0aWZpY2F0ZTAdBgNVHQ4E
FgQUkGvwz/doABCTlRZd+XvovfBVTbcwdAYDVR0jBG0wa4AU9KfAzJFGr2TzkfIn
+Miyb4qHMnOhSKRGMEQxCzAJBgNVBAYTAkRFMQ8wDQYDVQQIDAZIZXNzZW4xFDAS
BgNVBAoMC3ByaXZhY3lpZGVhMQ4wDAYDVQQDDAVDQTAwMYIJAPvI66yDzRIHMBMG
A1UdJQQMMAoGCCsGAQUFBwMBMA0GCSqGSIb3DQEBBQUAA4IBAQCI+Xrl+/TOvFKw
ooHuNUsvi73Zi+3o2A4xcdFePCipTmKwUlHhzd19YrrlhSwwTF8LmZM1SOf5+CCd
Wz8gf+gcl/4OkM85AsRFXSJq4VM4r8NpnZ3LIkyHgbWPbwd6QMHCTsc3a0NLtk+b
8R9P8KZQoWW5HLEMNF+i8HdXJJkCYgjABeAkTucOiL/05VFWEWgsQh2se39J888W
XHxWu6qCzAwGNaKlhkFcjNykK2HpezmFiu/74M1yMKyEE/7vOl/drfh2FpW8OsMm
XFGhn5vg1OoapJpKxhDXoMo1FILGbgvrQXwemmxQx/yFtkdcxTSfUpYaLdYKdaxA
VkUEzyHI
-----END CERTIFICATE-----
