Certificate:
    Data:
        Version: 3 (0x2)
        Serial Number: 268435657 (0x100000c9)
    Signature Algorithm: sha1WithRSAEncryption
        Issuer: C=DE, ST=Hessen, O=privacyidea, CN=CA001
        Validity
            Not Before: May 30 07:10:19 2016 GMT
            Not After : May 30 07:10:19 2017 GMT
        Subject: C=DE, ST=Hessen, O=privacyidea, CN=requester.localdomain
        Subject Public Key Info:
            Public Key Algorithm: rsaEncryption
                Public-Key: (2048 bit)
                Modulus:
                    00:cd:be:14:4f:fa:ce:01:3f:42:22:1b:1d:9c:af:
                    dd:92:d2:7f:db:6c:b7:3e:39:43:43:6b:13:03:f1:
                    05:f4:07:74:bc:76:69:28:0b:af:19:8e:d7:fc:e3:
                    cd:c6:58:f2:ca:7f:08:6d:53:fc:07:02:44:24:c6:
                    b4:34:4c:8c:04:fe:33:0e:40:e2:20:ba:02:73:5a:
                    f7:f5:4f:63:6e:cc:c6:b6:df:54:1d:37:39:7d:51:
                    36:26:5f:bd:dc:3f:a8:8b:6b:a2:ae:b6:9d:d6:21:
                    e7:df:41:b8:7a:28:2a:68:48:ca:a8:2d:ed:e1:e9:
                    46:5e:5a:72:6d:b4:84:38:87:91:fd:94:11:0b:28:
                    84:c6:c2:2f:2a:fb:01:f9:36:7a:09:75:d1:33:88:
                    3c:73:41:5b:c8:bf:94:89:70:a1:f0:c0:b9:2e:50:
                    53:1e:b1:17:64:69:f4:2d:81:e0:a9:0d:0e:32:e9:
                    ba:55:8a:85:f1:1b:6f:49:79:b4:7f:88:c3:0d:3e:
                    54:88:9b:3d:1f:38:8c:04:f3:ee:6a:63:2b:f5:c6:
                    db:b4:83:aa:c4:78:41:3a:7d:4b:e1:c8:3e:71:ca:
                    1b:61:59:ea:c6:c4:ca:32:5e:c9:e9:bf:12:29:e6:
                    c6:c3:63:fe:a0:55:da:7a:f1:60:98:4d:26:ed:fa:
                    70:2d
                Exponent: 65537 (0x10001)
        X509v3 extensions:
            X509v3 Key Usage: 
                Digital Signature, Key Encipherment
            X509v3 Basic Constraints: 
                CA:FALSE
            Netscape Cert Type: 
                SSL Server
            Netscape Comment: 
                OpenSSL Generated Server Certificate
            X509v3 Subject Key Identifier: 
                53:3F:ED:5D:09:07:B3:65:7B:AB:45:C9:24:5B:09:77:80:0A:96:ED
            X509v3 Authority Key Identifier: 
                keyid:F4:A7:C0:CC:91:46:AF:64:F3:91:F2:27:F8:C8:B2:6F:8A:87:32:73
                DirName:/C=DE/ST=Hessen/O=privacyidea/CN=CA001
                serial:FB:C8:EB:AC:83:CD:12:07

            X509v3 Extended Key Usage: 
                TLS Web Server Authentication
    Signature Algorithm: sha1WithRSAEncryption
         4c:b3:7d:0b:79:92:58:29:22:07:fb:7c:d6:be:b7:67:c4:18:
         d9:27:48:2b:e1:6d:97:dc:aa:e9:99:de:eb:55:d1:77:d4:61:
         68:92:2f:56:89:86:e1:c6:0c:84:d2:da:64:8d:71:58:a5:97:
         55:07:db:52:a7:62:ab:28:ff:33:3f:4e:c4:f4:c9:c4:84:e4:
         7b:a3:1c:89:17:de:8b:3e:71:f2:32:85:fe:9a:33:c4:5e:cb:
         35:b6:10:a9:be:24:83:13:e8:4b:52:df:30:07:59:4e:e4:4f:
         00:c2:92:a6:67:26:77:df:68:10:bd:45:a4:89:c0:e2:8b:6f:
         61:30:32:3b:04:e2:34:76:ef:97:c9:e8:25:32:8c:86:d2:b9:
         12:26:c7:61:9e:9d:92:a8:de:0d:e2:9e:85:12:52:8d:26:0f:
         33:52:ba:49:2b:e9:45:6d:07:1a:df:1f:56:81:bd:01:ef:34:
         c1:8b:73:a6:89:16:6b:c7:30:0e:c5:e4:45:c9:62:a3:79:dc:
         7f:86:66:4e:4f:bd:a8:68:c3:6c:29:47:d4:1b:7f:9b:69:dd:
         14:a9:ab:a8:7e:12:3d:eb:28:99:5f:a1:46:35:99:00:74:6a:
         1e:ca:1b:c0:65:1c:2b:e3:ee:ef:cb:0f:03:be:25:84:0d:87:
         b5:39:e6:da
-----BEGIN CERTIFICATE-----
MIIEJjCCAw6gAwIBAgIEEAAAyTANBgkqhkiG9w0BAQUFADBEMQswCQYDVQQGEwJE
RTEPMA0GA1UECAwGSGVzc2VuMRQwEgYDVQQKDAtwcml2YWN5aWRlYTEOMAwGA1UE
AwwFQ0EwMDEwHhcNMTYwNTMwMDcxMDE5WhcNMTcwNTMwMDcxMDE5WjBUMQswCQYD
VQQGEwJERTEPMA0GA1UECAwGSGVzc2VuMRQwEgYDVQQKDAtwcml2YWN5aWRlYTEe
MBwGA1UEAwwVcmVxdWVzdGVyLmxvY2FsZG9tYWluMIIBIjANBgkqhkiG9w0BAQEF
AAOCAQ8AMIIBCgKCAQEAzb4UT/rOAT9CIhsdnK/dktJ/22y3PjlDQ2sTA/EF9Ad0
vHZpKAuvGY7X/OPNxljyyn8IbVP8BwJEJMa0NEyMBP4zDkDiILoCc1r39U9jbszG
tt9UHTc5fVE2Jl+93D+oi2uirrad1iHn30G4eigqaEjKqC3t4elGXlpybbSEOIeR
/ZQRCyiExsIvKvsB+TZ6CXXRM4g8c0FbyL+UiXCh8MC5LlBTHrEXZGn0LYHgqQ0O
Mum6VYqF8RtvSXm0f4jDDT5UiJs9HziMBPPuamMr9cbbtIOqxHhBOn1L4cg+ccob
YVnqxsTKMl7J6b8SKebGw2P+oFXaevFgmE0m7fpwLQIDAQABo4IBDjCCAQowCwYD
VR0PBAQDAgWgMAkGA1UdEwQCMAAwEQYJYIZIAYb4QgEBBAQDAgZAMDMGCWCGSAGG
+EIBDQQmFiRPcGVuU1NMIEdlbmVyYXRlZCBTZXJ2ZXIgQ2VydGlmaWNhdGUwHQYD
VR0OBBYEFFM/7V0JB7Nle6tFySRbCXeACpbtMHQGA1UdIwRtMGuAFPSnwMyRRq9k
85HyJ/jIsm+KhzJzoUikRjBEMQswCQYDVQQGEwJERTEPMA0GA1UECAwGSGVzc2Vu
MRQwEgYDVQQKDAtwcml2YWN5aWRlYTEOMAwGA1UEAwwFQ0EwMDGCCQD7yOusg80S
BzATBgNVHSUEDDAKBggrBgEFBQcDATANBgkqhkiG9w0BAQUFAAOCAQEATLN9C3mS
WCkiB/t81r63Z8QY2SdIK+Ftl9yq6Zne61XRd9RhaJIvVomG4cYMhNLaZI1xWKWX
VQfbUqdiqyj/Mz9OxPTJxITke6MciRfeiz5x8jKF/pozxF7LNbYQqb4kgxPoS1Lf
MAdZTuRPAMKSpmcmd99oEL1FpInA4otvYTAyOwTiNHbvl8noJTKMhtK5EibHYZ6d
kqjeDeKehRJSjSYPM1K6SSvpRW0HGt8fVoG9Ae80wYtzpokWa8cwDsXkRclio3nc
f4ZmTk+9qGjDbClH1Bt/m2ndFKmrqH4SPesomV+hRjWZAHRqHsobwGUcK+Pu78sP
A74lhA2HtTnm2g==
-----END CERTIFICATE-----
