Certificate:
    Data:
        Version: 3 (0x2)
        Serial Number: 268435659 (0x100000cb)
    Signature Algorithm: sha1WithRSAEncryption
        Issuer: C=DE, ST=Hessen, O=privacyidea, CN=CA001
        Validity
            Not Before: May 30 07:12:10 2016 GMT
            Not After : May 30 07:12:10 2017 GMT
        Subject: C=DE, ST=Hessen, O=privacyidea, CN=usercert
        Subject Public Key Info:
            Public Key Algorithm: rsaEncryption
                Public-Key: (2048 bit)
                Modulus:
                    00:dc:2f:d1:5f:29:97:d4:7c:c3:53:c8:30:bd:4b:
                    67:70:2c:24:6b:b8:5e:eb:21:7a:48:12:56:7c:81:
                    5c:48:75:b6:68:eb:f6:f2:98:4e:50:51:d1:7f:6c:
                    73:f3:0a:a7:ae:be:48:5e:e5:d6:e1:d9:2a:7c:32:
                    6e:4e:fd:08:f6:5a:54:49:23:73:c3:b9:07:18:d1:
                    ef:b3:ac:f8:8a:dc:94:96:a4:90:3a:8e:74:df:e6:
                    0d:37:1b:bd:5b:b7:25:1a:56:39:da:6f:91:aa:5e:
                    1c:74:f3:f9:7c:14:01:83:12:65:76:c7:bb:fe:36:
                    5b:95:e9:72:65:83:ed:3e:98:30:71:fa:87:dd:a3:
                    36:5a:30:03:2e:26:e0:61:d1:bf:02:3f:b6:06:1f:
                    4a:89:28:1c:5c:a2:ff:4e:be:94:e6:8c:e0:da:82:
                    f1:9d:29:32:48:30:73:b4:04:f6:42:1e:be:f7:e2:
                    32:32:27:3c:9d:89:2f:70:3e:85:9a:6f:5c:c5:09:
                    c0:8c:32:2f:72:22:c9:d2:95:1f:b6:ac:72:60:72:
                    b7:82:4d:6b:ce:5b:e3:00:d0:d2:2f:58:c6:e0:10:
                    e5:51:ca:4d:3b:2e:e6:7e:ab:84:d6:56:f1:93:35:
                    a0:93:64:26:81:75:2f:91:b5:16:06:38:0b:db:cc:
                    2d:07
                Exponent: 65537 (0x10001)
        X509v3 extensions:
            X509v3 Key Usage: 
                Digital Signature, Key Encipherment
            X509v3 Basic Constraints: 
                CA:FALSE
            Netscape Cert Type: 
                SSL Server
            Netscape Comment: 
                OpenSSL Generated Server Certificate
            X509v3 Subject Key Identifier: 
                FC:14:D1:F0:4B:8D:00:90:F2:F5:B8:71:9E:4E:97:C3:92:54:AD:0B
            X509v3 Authority Key Identifier: 
                keyid:F4:A7:C0:CC:91:46:AF:64:F3:91:F2:27:F8:C8:B2:6F:8A:87:32:73
                DirName:/C=DE/ST=Hessen/O=privacyidea/CN=CA001
                serial:FB:C8:EB:AC:83:CD:12:07

            X509v3 Extended Key Usage: 
                TLS Web Server Authentication
    Signature Algorithm: sha1WithRSAEncryption
         16:15:6e:73:74:da:c8:95:1b:ce:a1:be:a1:01:3b:7c:34:bd:
         23:43:9c:ac:ef:6b:66:d4:d5:e0:0b:04:8a:1f:87:a9:b1:0f:
         a2:e6:a6:30:4f:0e:78:c8:bd:bc:0b:b5:ef:34:d4:23:f8:9f:
         be:da:cf:66:e2:88:24:1d:4b:1c:92:9b:fe:60:ab:22:b8:6c:
         2f:56:d6:a2:82:d3:0d:93:68:ea:8c:c8:da:fa:64:cf:e4:a6:
         38:e6:cd:36:97:48:a0:a0:55:04:e0:06:26:d2:bf:ef:03:16:
         5c:46:67:c5:e2:cc:dd:16:18:42:d0:e1:ed:70:fe:49:01:ad:
         e4:c1:45:98:5e:31:74:ef:79:b4:b9:5f:b4:d3:bd:be:eb:1d:
         ef:4b:f8:bf:b6:43:91:f6:33:dd:b2:eb:13:2f:79:e8:d1:2e:
         67:6d:97:2f:f0:67:d5:0b:5a:7b:3f:fb:07:b4:bd:99:88:d9:
         2f:03:82:72:ac:3f:57:71:bf:2a:60:42:61:53:d5:01:1c:8e:
         f2:1f:c7:c3:92:d5:3d:f2:c6:76:60:c1:42:7b:e3:80:89:50:
         58:a9:79:5c:09:65:6c:34:ee:43:79:40:7c:e6:71:49:f9:6b:
         a2:88:d2:fe:4f:69:06:6e:2f:f0:d5:9c:5b:99:b8:d4:42:bb:
         6c:a1:72:ba
-----BEGIN CERTIFICATE-----
MIIEGTCCAwGgAwIBAgIEEAAAyzANBgkqhkiG9w0BAQUFADBEMQswCQYDVQQGEwJE
RTEPMA0GA1UECAwGSGVzc2VuMRQwEgYDVQQKDAtwcml2YWN5aWRlYTEOMAwGA1UE
AwwFQ0EwMDEwHhcNMTYwNTMwMDcxMjEwWhcNMTcwNTMwMDcxMjEwWjBHMQswCQYD
VQQGEwJERTEPMA0GA1UECAwGSGVzc2VuMRQwEgYDVQQKDAtwcml2YWN5aWRlYTER
MA8GA1UEAwwIdXNlcmNlcnQwggEiMA0GCSqGSIb3DQEBAQUAA4IBDwAwggEKAoIB
AQDcL9FfKZfUfMNTyDC9S2dwLCRruF7rIXpIElZ8gVxIdbZo6/bymE5QUdF/bHPz
Cqeuvkhe5dbh2Sp8Mm5O/Qj2WlRJI3PDuQcY0e+zrPiK3JSWpJA6jnTf5g03G71b
tyUaVjnab5GqXhx08/l8FAGDEmV2x7v+NluV6XJlg+0+mDBx+ofdozZaMAMuJuBh
0b8CP7YGH0qJKBxcov9OvpTmjODagvGdKTJIMHO0BPZCHr734jIyJzydiS9wPoWa
b1zFCcCMMi9yIsnSlR+2rHJgcreCTWvOW+MA0NIvWMbgEOVRyk07LuZ+q4TWVvGT
NaCTZCaBdS+RtRYGOAvbzC0HAgMBAAGjggEOMIIBCjALBgNVHQ8EBAMCBaAwCQYD
VR0TBAIwADARBglghkgBhvhCAQEEBAMCBkAwMwYJYIZIAYb4QgENBCYWJE9wZW5T
U0wgR2VuZXJhdGVkIFNlcnZlciBDZXJ0aWZpY2F0ZTAdBgNVHQ4EFgQU/BTR8EuN
AJDy9bhxnk6Xw5JUrQswdAYDVR0jBG0wa4AU9KfAzJFGr2TzkfIn+Miyb4qHMnOh
SKRGMEQxCzAJBgNVBAYTAkRFMQ8wDQYDVQQIDAZIZXNzZW4xFDASBgNVBAoMC3By
aXZhY3lpZGVhMQ4wDAYDVQQDDAVDQTAwMYIJAPvI66yDzRIHMBMGA1UdJQQMMAoG
CCsGAQUFBwMBMA0GCSqGSIb3DQEBBQUAA4IBAQAWFW5zdNrIlRvOob6hATt8NL0j
Q5ys72tm1NXgCwSKH4epsQ+i5qYwTw54yL28C7XvNNQj+J++2s9m4ogkHUsckpv+
YKsiuGwvVtaigtMNk2jqjMja+mTP5KY45s02l0igoFUE4AYm0r/vAxZcRmfF4szd
FhhC0OHtcP5JAa3kwUWYXjF073m0uV+0072+6x3vS/i/tkOR9jPdsusTL3no0S5n
bZcv8GfVC1p7P/sHtL2ZiNkvA4JyrD9Xcb8qYEJhU9UBHI7yH8fDktU98sZ2YMFC
e+OAiVBYqXlcCWVsNO5DeUB85nFJ+WuiiNL+T2kGbi/w1ZxbmbjUQrtsoXK6
-----END CERTIFICATE-----
