Certificate:
    Data:
        Version: 3 (0x2)
        Serial Number: 268435661 (0x100000cd)
    Signature Algorithm: sha1WithRSAEncryption
        Issuer: C=DE, ST=Hessen, O=privacyidea, CN=CA001
        Validity
            Not Before: May 30 07:15:40 2016 GMT
            Not After : May 30 07:15:40 2017 GMT
        Subject: C=DE, ST=Hessen, O=privacyidea, CN=requester.localdomain
        Subject Public Key Info:
            Public Key Algorithm: rsaEncryption
                Public-Key: (2048 bit)
                Modulus:
                    00:cd:be:14:4f:fa:ce:01:3f:42:22:1b:1d:9c:af:
                    dd:92:d2:7f:db:6c:b7:3e:39:43:43:6b:13:03:f1:
                    05:f4:07:74:bc:76:69:28:0b:af:19:8e:d7:fc:e3:
                    cd:c6:58:f2:ca:7f:08:6d:53:fc:07:02:44:24:c6:
                    b4:34:4c:8c:04:fe:33:0e:40:e2:20:ba:02:73:5a:
                    f7:f5:4f:63:6e:cc:c6:b6:df:54:1d:37:39:7d:51:
                    36:26:5f:bd:dc:3f:a8:8b:6b:a2:ae:b6:9d:d6:21:
                    e7:df:41:b8:7a:28:2a:68:48:ca:a8:2d:ed:e1:e9:
                    46:5e:5a:72:6d:b4:84:38:87:91:fd:94:11:0b:28:
                    84:c6:c2:2f:2a:fb:01:f9:36:7a:09:75:d1:33:88:
                    3c:73:41:5b:c8:bf:94:89:70:a1:f0:c0:b9:2e:50:
                    53:1e:b1:17:64:69:f4:2d:81:e0:a9:0d:0e:32:e9:
                    ba:55:8a:85:f1:1b:6f:49:79:b4:7f:88:c3:0d:3e:
                    54:88:9b:3d:1f:38:8c:04:f3:ee:6a:63:2b:f5:c6:
                    db:b4:83:aa:c4:78:41:3a:7d:4b:e1:c8:3e:71:ca:
                    1b:61:59:ea:c6:c4:ca:32:5e:c9:e9:bf:12:29:e6:
                    c6:c3:63:fe:a0:55:da:7a:f1:60:98:4d:26:ed:fa:
                    70:2d
                Exponent: 65537 (0x10001)
        X509v3 extensions:
            X509v3 Key Usage: 
                Digital Signature, Key Encipherment
            X509v3 Basic Constraints: 
                CA:FALSE
            Netscape Cert Type: 
                SSL Server
            Netscape Comment: 
                OpenSSL Generated Server Certificate
            X509v3 Subject Key Identifier: 
                53:3F:ED:5D:09:07:B3:65:7B:AB:45:C9:24:5B:09:77:80:0A:96:ED
            X509v3 Authority Key Identifier: 
                keyid:F4:A7:C0:CC:91:46:AF:64:F3:91:F2:27:F8:C8:B2:6F:8A:87:32:73
                DirName:/C=DE/ST=Hessen/O=privacyidea/CN=CA001
                serial:FB:C8:EB:AC:83:CD:12:07

            X509v3 Extended Key Usage: 
                TLS Web Server Authentication
    Signature Algorithm: sha1WithRSAEncryption
         8e:54:8a:02:f6:4f:a0:21:ef:fc:f8:ab:08:cd:e9:0a:85:ce:
         07:e0:9a:75:6f:0c:32:9f:76:22:11:a7:fd:c7:81:37:7c:9d:
         d5:ed:e9:bf:6a:94:89:14:c2:2d:63:a0:12:96:e3:1b:2a:12:
         82:b4:f7:08:79:78:9d:c4:c2:fe:9e:c1:d9:df:99:d6:dc:2a:
         a1:60:9c:e6:de:d8:00:20:d0:a0:11:fb:e4:68:1a:4e:ae:a8:
         77:32:8f:23:dd:b4:0b:42:af:3e:12:b7:2f:a8:34:0e:9d:58:
         45:b4:67:1c:f7:d0:3a:31:c0:4d:03:e6:cc:96:ff:33:99:19:
         73:e1:f1:13:a2:74:40:01:de:a4:6a:33:8f:d1:af:7e:a6:40:
         52:4d:10:20:a7:d8:35:52:40:28:b4:4e:6c:21:14:65:bf:35:
         03:cd:32:84:98:1d:a6:e7:bc:35:05:82:3a:e4:e3:09:b1:66:
         d7:c2:ba:cb:20:5f:57:f9:91:aa:fd:05:7b:98:88:b2:84:d4:
         3f:d4:0b:70:6a:99:c4:13:9f:b7:68:b9:93:0c:a5:ae:88:5f:
         25:9e:7a:0a:5d:34:9c:d4:4e:15:73:9a:0b:86:09:0e:d8:8b:
         0d:61:25:c6:78:61:86:2e:cd:f5:9e:c9:56:40:c9:7e:f4:dd:
         fc:8f:08:49
-----BEGIN CERTIFICATE-----
MIIEJjCCAw6gAwIBAgIEEAAAzTANBgkqhkiG9w0BAQUFADBEMQswCQYDVQQGEwJE
RTEPMA0GA1UECAwGSGVzc2VuMRQwEgYDVQQKDAtwcml2YWN5aWRlYTEOMAwGA1UE
AwwFQ0EwMDEwHhcNMTYwNTMwMDcxNTQwWhcNMTcwNTMwMDcxNTQwWjBUMQswCQYD
VQQGEwJERTEPMA0GA1UECAwGSGVzc2VuMRQwEgYDVQQKDAtwcml2YWN5aWRlYTEe
MBwGA1UEAwwVcmVxdWVzdGVyLmxvY2FsZG9tYWluMIIBIjANBgkqhkiG9w0BAQEF
AAOCAQ8AMIIBCgKCAQEAzb4UT/rOAT9CIhsdnK/dktJ/22y3PjlDQ2sTA/EF9Ad0
vHZpKAuvGY7X/OPNxljyyn8IbVP8BwJEJMa0NEyMBP4zDkDiILoCc1r39U9jbszG
tt9UHTc5fVE2Jl+93D+oi2uirrad1iHn30G4eigqaEjKqC3t4elGXlpybbSEOIeR
/ZQRCyiExsIvKvsB+TZ6CXXRM4g8c0FbyL+UiXCh8MC5LlBTHrEXZGn0LYHgqQ0O
Mum6VYqF8RtvSXm0f4jDDT5UiJs9HziMBPPuamMr9cbbtIOqxHhBOn1L4cg+ccob
YVnqxsTKMl7J6b8SKebGw2P+oFXaevFgmE0m7fpwLQIDAQABo4IBDjCCAQowCwYD
VR0PBAQDAgWgMAkGA1UdEwQCMAAwEQYJYIZIAYb4QgEBBAQDAgZAMDMGCWCGSAGG
+EIBDQQmFiRPcGVuU1NMIEdlbmVyYXRlZCBTZXJ2ZXIgQ2VydGlmaWNhdGUwHQYD
VR0OBBYEFFM/7V0JB7Nle6tFySRbCXeACpbtMHQGA1UdIwRtMGuAFPSnwMyRRq9k
85HyJ/jIsm+KhzJzoUikRjBEMQswCQYDVQQGEwJERTEPMA0GA1UECAwGSGVzc2Vu
MRQwEgYDVQQKDAtwcml2YWN5aWRlYTEOMAwGA1UEAwwFQ0EwMDGCCQD7yOusg80S
BzATBgNVHSUEDDAKBggrBgEFBQcDATANBgkqhkiG9w0BAQUFAAOCAQEAjlSKAvZP
oCHv/PirCM3pCoXOB+CadW8MMp92IhGn/ceBN3yd1e3pv2qUiRTCLWOgEpbjGyoS
grT3CHl4ncTC/p7B2d+Z1twqoWCc5t7YACDQoBH75GgaTq6odzKPI920C0KvPhK3
L6g0Dp1YRbRnHPfQOjHATQPmzJb/M5kZc+HxE6J0QAHepGozj9GvfqZAUk0QIKfY
NVJAKLRObCEUZb81A80yhJgdpue8NQWCOuTjCbFm18K6yyBfV/mRqv0Fe5iIsoTU
P9QLcGqZxBOft2i5kwylrohfJZ56Cl00nNROFXOaC4YJDtiLDWElxnhhhi7N9Z7J
VkDJfvTd/I8ISQ==
-----END CERTIFICATE-----
