Certificate:
    Data:
        Version: 3 (0x2)
        Serial Number: 268435658 (0x100000ca)
    Signature Algorithm: sha1WithRSAEncryption
        Issuer: C=DE, ST=Hessen, O=privacyidea, CN=CA001
        Validity
            Not Before: May  4 06:18:47 2016 GMT
            Not After : May  4 06:18:47 2017 GMT
        Subject: C=DE, ST=Hessen, O=privacyidea, CN=requester.localdomain
        Subject Public Key Info:
            Public Key Algorithm: rsaEncryption
                Public-Key: (2048 bit)
                Modulus:
                    00:cd:be:14:4f:fa:ce:01:3f:42:22:1b:1d:9c:af:
                    dd:92:d2:7f:db:6c:b7:3e:39:43:43:6b:13:03:f1:
                    05:f4:07:74:bc:76:69:28:0b:af:19:8e:d7:fc:e3:
                    cd:c6:58:f2:ca:7f:08:6d:53:fc:07:02:44:24:c6:
                    b4:34:4c:8c:04:fe:33:0e:40:e2:20:ba:02:73:5a:
                    f7:f5:4f:63:6e:cc:c6:b6:df:54:1d:37:39:7d:51:
                    36:26:5f:bd:dc:3f:a8:8b:6b:a2:ae:b6:9d:d6:21:
                    e7:df:41:b8:7a:28:2a:68:48:ca:a8:2d:ed:e1:e9:
                    46:5e:5a:72:6d:b4:84:38:87:91:fd:94:11:0b:28:
                    84:c6:c2:2f:2a:fb:01:f9:36:7a:09:75:d1:33:88:
                    3c:73:41:5b:c8:bf:94:89:70:a1:f0:c0:b9:2e:50:
                    53:1e:b1:17:64:69:f4:2d:81:e0:a9:0d:0e:32:e9:
                    ba:55:8a:85:f1:1b:6f:49:79:b4:7f:88:c3:0d:3e:
                    54:88:9b:3d:1f:38:8c:04:f3:ee:6a:63:2b:f5:c6:
                    db:b4:83:aa:c4:78:41:3a:7d:4b:e1:c8:3e:71:ca:
                    1b:61:59:ea:c6:c4:ca:32:5e:c9:e9:bf:12:29:e6:
                    c6:c3:63:fe:a0:55:da:7a:f1:60:98:4d:26:ed:fa:
                    70:2d
                Exponent: 65537 (0x10001)
        X509v3 extensions:
            X509v3 Key Usage: 
                Digital Signature, Key Encipherment
            X509v3 Basic Constraints: 
                CA:FALSE
            Netscape Cert Type: 
                SSL Server
            Netscape Comment: 
                OpenSSL Generated Server Certificate
            X509v3 Subject Key Identifier: 
                53:3F:ED:5D:09:07:B3:65:7B:AB:45:C9:24:5B:09:77:80:0A:96:ED
            X509v3 Authority Key Identifier: 
                keyid:F4:A7:C0:CC:91:46:AF:64:F3:91:F2:27:F8:C8:B2:6F:8A:87:32:73
                DirName:/C=DE/ST=Hessen/O=privacyidea/CN=CA001
                serial:FB:C8:EB:AC:83:CD:12:07

            X509v3 Extended Key Usage: 
                TLS Web Server Authentication
    Signature Algorithm: sha1WithRSAEncryption
         2a:24:bb:97:72:fc:b7:fd:b9:9c:06:0d:38:11:9a:6f:f7:59:
         40:23:1a:9c:a2:b8:2d:2f:4f:1b:7e:c0:dc:cb:e0:ad:27:79:
         5a:66:d9:87:d0:7a:0b:1b:99:2f:93:e4:bf:96:2e:a0:06:fa:
         19:a2:e7:53:36:4a:5a:57:28:f4:46:c0:0d:1d:81:42:6c:6d:
         aa:49:e2:18:58:1c:85:b7:67:7d:17:51:a3:e6:46:f2:94:41:
         f7:24:6f:3b:32:4d:ac:0c:cc:f9:9b:a7:42:a7:ed:24:f1:57:
         92:2e:d9:93:6e:c0:a9:d6:c6:4a:76:06:a8:d6:7b:a0:01:c1:
         aa:82:c6:74:10:eb:ae:6c:f4:94:71:34:66:bc:e3:ec:4c:d9:
         5b:10:41:de:33:49:6a:f5:99:b5:51:f2:04:43:8b:09:79:93:
         14:66:05:3f:fc:9e:57:9a:f8:cc:93:fe:c7:08:62:85:25:48:
         62:a7:80:d4:78:ff:71:4d:bf:83:a1:11:3c:87:83:66:9a:81:
         b7:72:c6:79:d8:49:33:cc:e6:ef:d1:fb:b4:d5:15:d8:8a:ea:
         a6:33:6f:e1:6d:76:fc:0b:0d:e3:2b:2c:84:96:9f:29:ee:8d:
         0a:35:81:e7:7a:22:9e:a1:4a:14:78:6c:8b:ee:24:e0:5d:d8:
         07:df:55:b4
-----BEGIN CERTIFICATE-----
MIIEJjCCAw6gAwIBAgIEEAAAyjANBgkqhkiG9w0BAQUFADBEMQswCQYDVQQGEwJE
RTEPMA0GA1UECAwGSGVzc2VuMRQwEgYDVQQKDAtwcml2YWN5aWRlYTEOMAwGA1UE
AwwFQ0EwMDEwHhcNMTYwNTA0MDYxODQ3WhcNMTcwNTA0MDYxODQ3WjBUMQswCQYD
VQQGEwJERTEPMA0GA1UECAwGSGVzc2VuMRQwEgYDVQQKDAtwcml2YWN5aWRlYTEe
MBwGA1UEAwwVcmVxdWVzdGVyLmxvY2FsZG9tYWluMIIBIjANBgkqhkiG9w0BAQEF
AAOCAQ8AMIIBCgKCAQEAzb4UT/rOAT9CIhsdnK/dktJ/22y3PjlDQ2sTA/EF9Ad0
vHZpKAuvGY7X/OPNxljyyn8IbVP8BwJEJMa0NEyMBP4zDkDiILoCc1r39U9jbszG
tt9UHTc5fVE2Jl+93D+oi2uirrad1iHn30G4eigqaEjKqC3t4elGXlpybbSEOIeR
/ZQRCyiExsIvKvsB+TZ6CXXRM4g8c0FbyL+UiXCh8MC5LlBTHrEXZGn0LYHgqQ0O
Mum6VYqF8RtvSXm0f4jDDT5UiJs9HziMBPPuamMr9cbbtIOqxHhBOn1L4cg+ccob
YVnqxsTKMl7J6b8SKebGw2P+oFXaevFgmE0m7fpwLQIDAQABo4IBDjCCAQowCwYD
VR0PBAQDAgWgMAkGA1UdEwQCMAAwEQYJYIZIAYb4QgEBBAQDAgZAMDMGCWCGSAGG
+EIBDQQmFiRPcGVuU1NMIEdlbmVyYXRlZCBTZXJ2ZXIgQ2VydGlmaWNhdGUwHQYD
VR0OBBYEFFM/7V0JB7Nle6tFySRbCXeACpbtMHQGA1UdIwRtMGuAFPSnwMyRRq9k
85HyJ/jIsm+KhzJzoUikRjBEMQswCQYDVQQGEwJERTEPMA0GA1UECAwGSGVzc2Vu
MRQwEgYDVQQKDAtwcml2YWN5aWRlYTEOMAwGA1UEAwwFQ0EwMDGCCQD7yOusg80S
BzATBgNVHSUEDDAKBggrBgEFBQcDATANBgkqhkiG9w0BAQUFAAOCAQEAKiS7l3L8
t/25nAYNOBGab/dZQCManKK4LS9PG37A3MvgrSd5WmbZh9B6CxuZL5Pkv5YuoAb6
GaLnUzZKWlco9EbADR2BQmxtqkniGFgchbdnfRdRo+ZG8pRB9yRvOzJNrAzM+Zun
QqftJPFXki7Zk27AqdbGSnYGqNZ7oAHBqoLGdBDrrmz0lHE0Zrzj7EzZWxBB3jNJ
avWZtVHyBEOLCXmTFGYFP/yeV5r4zJP+xwhihSVIYqeA1Hj/cU2/g6ERPIeDZpqB
t3LGedhJM8zm79H7tNUV2IrqpjNv4W12/AsN4ysshJafKe6NCjWB53oinqFKFHhs
i+4k4F3YB99VtA==
-----END CERTIFICATE-----
