Certificate:
    Data:
        Version: 3 (0x2)
        Serial Number: 268435669 (0x100000d5)
    Signature Algorithm: sha1WithRSAEncryption
        Issuer: C=DE, ST=Hessen, O=privacyidea, CN=CA001
        Validity
            Not Before: Apr 29 10:39:02 2016 GMT
            Not After : Apr 29 10:39:02 2017 GMT
        Subject: OU=local, CN=corny/emailAddress=corny@cornelinux.de
        Subject Public Key Info:
            Public Key Algorithm: rsaEncryption
                Public-Key: (2048 bit)
                Modulus:
                    00:b4:2a:76:dc:f3:17:e9:c3:bb:55:ef:d5:6b:8a:
                    91:e0:17:a3:b3:95:7a:ce:88:f7:9e:0f:71:92:36:
                    06:f6:b9:54:61:15:a7:d8:09:77:67:b1:a3:31:58:
                    e3:99:7b:bf:d0:7d:0e:e9:5b:49:88:2c:dc:f6:9d:
                    9c:d9:fc:02:28:8c:fc:4d:3b:4b:6f:72:99:cc:8c:
                    aa:f2:79:fa:b3:ba:c2:bd:37:05:38:10:75:40:67:
                    17:64:af:a2:4e:0a:06:01:7b:cc:1e:a4:a0:5c:8a:
                    82:a4:98:7a:6b:14:9e:1e:b6:c9:9d:40:17:78:62:
                    5a:15:61:f8:56:b8:b3:d7:7e:a4:8a:fb:6d:37:e1:
                    c3:a8:26:07:f0:39:8a:8b:f9:e9:0e:a0:3b:79:79:
                    3a:89:c0:e3:58:5f:66:0c:00:52:25:c2:8e:c3:98:
                    0d:c1:c0:53:51:b3:5b:8e:e1:93:03:37:b4:d4:fb:
                    2a:77:38:30:cf:1b:dc:07:f8:0e:6d:56:17:0a:b4:
                    bb:7d:21:82:20:2d:b8:b7:ae:6b:05:2f:a4:95:3e:
                    86:67:13:06:e9:18:c6:d3:02:05:1a:5c:38:fc:03:
                    f2:80:64:f7:55:ec:d4:8f:f4:46:dd:35:6a:12:f0:
                    b0:fd:47:d7:cc:93:a5:b4:41:80:2e:ff:4d:1a:8e:
                    63:27
                Exponent: 65537 (0x10001)
        X509v3 extensions:
            X509v3 Key Usage: 
                Digital Signature, Key Encipherment
            X509v3 Basic Constraints: 
                CA:FALSE
            Netscape Cert Type: 
                SSL Server
            Netscape Comment: 
                OpenSSL Generated Server Certificate
            X509v3 Subject Key Identifier: 
                E4:C4:A9:31:74:89:E3:D2:EC:98:E1:1D:26:A6:63:EA:38:1D:9F:17
            X509v3 Authority Key Identifier: 
                keyid:F4:A7:C0:CC:91:46:AF:64:F3:91:F2:27:F8:C8:B2:6F:8A:87:32:73
                DirName:/C=DE/ST=Hessen/O=privacyidea/CN=CA001
                serial:FB:C8:EB:AC:83:CD:12:07

            X509v3 Extended Key Usage: 
                TLS Web Server Authentication
    Signature Algorithm: sha1WithRSAEncryption
         39:91:51:37:af:ec:c5:8b:11:5e:24:03:62:6d:eb:a5:a4:8b:
         c2:73:e4:21:99:ee:d2:79:31:15:76:91:3d:9f:e9:23:c6:67:
         aa:3c:6e:46:10:31:a3:8c:00:92:e1:aa:29:2f:7d:9a:4f:42:
         93:99:e8:78:5f:3c:33:3a:ad:55:82:6f:10:44:0a:c5:f5:71:
         90:1b:9a:19:38:c7:4b:c7:c2:b1:8a:fc:54:44:85:58:df:da:
         7b:96:8b:bb:e5:3e:bf:a1:91:3e:50:ec:47:8b:86:21:4a:6a:
         c7:62:f8:d0:62:75:cb:df:a8:d5:79:e8:6d:23:5d:44:f4:07:
         88:fa:dc:66:e7:1f:b2:4f:60:b0:fb:31:6d:6b:ec:24:a2:d8:
         a1:da:ca:48:49:ea:05:c5:fe:9b:f9:1f:18:ca:42:95:31:a6:
         82:fd:da:4e:d1:6b:be:dd:36:aa:ca:56:7b:ef:e5:32:c1:35:
         26:63:ba:fb:b2:db:7c:71:1b:27:60:cf:1b:ff:cf:19:74:31:
         f6:92:33:4f:ea:0b:ee:98:c5:7c:21:4a:dd:84:38:69:7c:b9:
         47:51:fc:94:c1:93:81:ce:a0:2d:80:a4:95:46:ba:20:9d:3b:
         65:87:1a:ff:49:f2:62:51:aa:2a:db:dc:7c:fa:8b:dd:07:62:
         a7:ff:17:aa
-----BEGIN CERTIFICATE-----
MIIEFjCCAv6gAwIBAgIEEAAA1TANBgkqhkiG9w0BAQUFADBEMQswCQYDVQQGEwJE
RTEPMA0GA1UECAwGSGVzc2VuMRQwEgYDVQQKDAtwcml2YWN5aWRlYTEOMAwGA1UE
AwwFQ0EwMDEwHhcNMTYwNDI5MTAzOTAyWhcNMTcwNDI5MTAzOTAyWjBEMQ4wDAYD
VQQLEwVsb2NhbDEOMAwGA1UEAxMFY29ybnkxIjAgBgkqhkiG9w0BCQEWE2Nvcm55
QGNvcm5lbGludXguZGUwggEiMA0GCSqGSIb3DQEBAQUAA4IBDwAwggEKAoIBAQC0
Knbc8xfpw7tV79VripHgF6OzlXrOiPeeD3GSNgb2uVRhFafYCXdnsaMxWOOZe7/Q
fQ7pW0mILNz2nZzZ/AIojPxNO0tvcpnMjKryefqzusK9NwU4EHVAZxdkr6JOCgYB
e8wepKBcioKkmHprFJ4etsmdQBd4YloVYfhWuLPXfqSK+2034cOoJgfwOYqL+ekO
oDt5eTqJwONYX2YMAFIlwo7DmA3BwFNRs1uO4ZMDN7TU+yp3ODDPG9wH+A5tVhcK
tLt9IYIgLbi3rmsFL6SVPoZnEwbpGMbTAgUaXDj8A/KAZPdV7NSP9EbdNWoS8LD9
R9fMk6W0QYAu/00ajmMnAgMBAAGjggEOMIIBCjALBgNVHQ8EBAMCBaAwCQYDVR0T
BAIwADARBglghkgBhvhCAQEEBAMCBkAwMwYJYIZIAYb4QgENBCYWJE9wZW5TU0wg
R2VuZXJhdGVkIFNlcnZlciBDZXJ0aWZpY2F0ZTAdBgNVHQ4EFgQU5MSpMXSJ49Ls
mOEdJqZj6jgdnxcwdAYDVR0jBG0wa4AU9KfAzJFGr2TzkfIn+Miyb4qHMnOhSKRG
MEQxCzAJBgNVBAYTAkRFMQ8wDQYDVQQIDAZIZXNzZW4xFDASBgNVBAoMC3ByaXZh
Y3lpZGVhMQ4wDAYDVQQDDAVDQTAwMYIJAPvI66yDzRIHMBMGA1UdJQQMMAoGCCsG
AQUFBwMBMA0GCSqGSIb3DQEBBQUAA4IBAQA5kVE3r+zFixFeJANibeulpIvCc+Qh
me7SeTEVdpE9n+kjxmeqPG5GEDGjjACS4aopL32aT0KTmeh4XzwzOq1Vgm8QRArF
9XGQG5oZOMdLx8KxivxURIVY39p7lou75T6/oZE+UOxHi4YhSmrHYvjQYnXL36jV
eehtI11E9AeI+txm5x+yT2Cw+zFta+wkotih2spISeoFxf6b+R8YykKVMaaC/dpO
0Wu+3TaqylZ77+UywTUmY7r7stt8cRsnYM8b/88ZdDH2kjNP6gvumMV8IUrdhDhp
fLlHUfyUwZOBzqAtgKSVRrognTtlhxr/SfJiUaoq29x8+ovdB2Kn/xeq
-----END CERTIFICATE-----
