Certificate:
    Data:
        Version: 3 (0x2)
        Serial Number: 268435668 (0x100000d4)
    Signature Algorithm: sha1WithRSAEncryption
        Issuer: C=DE, ST=Hessen, O=privacyidea, CN=CA001
        Validity
            Not Before: Apr 29 08:55:38 2016 GMT
            Not After : Apr 29 08:55:38 2017 GMT
        Subject: OU=local, CN=corny/emailAddress=corny@cornelinux.de
        Subject Public Key Info:
            Public Key Algorithm: rsaEncryption
                Public-Key: (2048 bit)
                Modulus:
                    00:bd:bc:f5:e9:c4:69:36:b7:8d:ab:cb:c7:79:c1:
                    59:96:e6:09:17:94:6f:d3:93:cb:32:11:d5:0e:24:
                    e9:6d:d9:29:5b:6d:09:bb:3f:bb:6b:63:4c:50:06:
                    d6:ad:40:17:52:81:05:e7:20:7a:aa:9c:74:1b:cc:
                    0e:86:ff:7e:f8:b5:9b:6a:ce:8e:22:0b:4d:c8:54:
                    a2:26:c1:0d:6e:8f:c4:db:d3:88:1f:05:9e:91:d7:
                    04:ae:71:94:f1:de:b6:04:a7:01:ff:f8:1c:0b:c6:
                    7d:63:e5:b6:f4:23:c9:a8:37:c0:61:5d:eb:14:18:
                    74:90:2a:a9:1a:ba:d6:37:19:bb:68:6e:8d:00:70:
                    d4:34:8b:52:24:ac:37:14:c8:18:2b:b3:a5:8b:74:
                    78:90:bc:7a:f8:83:5e:e3:ef:09:08:b6:2b:bb:b5:
                    c9:9d:43:a7:57:3d:23:3c:2e:9e:3e:04:1d:f9:64:
                    57:c9:f6:bf:a8:d0:9d:ad:04:f7:42:8e:9a:e0:cd:
                    63:1f:c5:4e:46:51:15:51:a8:bb:d1:2e:99:a0:a2:
                    e4:5b:2b:a4:63:b9:0c:f8:0c:3f:c9:b0:17:f6:99:
                    ec:d7:98:cb:1f:1f:7b:4b:d0:3d:04:ff:c7:24:3e:
                    16:44:d9:b2:77:96:26:03:b1:5b:a3:4a:51:d3:9d:
                    5d:8f
                Exponent: 65537 (0x10001)
        X509v3 extensions:
            X509v3 Key Usage: 
                Digital Signature, Key Encipherment
            X509v3 Basic Constraints: 
                CA:FALSE
            Netscape Cert Type: 
                SSL Server
            Netscape Comment: 
                OpenSSL Generated Server Certificate
            X509v3 Subject Key Identifier: 
                62:75:2E:D5:88:21:7E:89:EB:17:DC:F9:AA:3C:EE:A8:A5:90:2B:AB
            X509v3 Authority Key Identifier: 
                keyid:F4:A7:C0:CC:91:46:AF:64:F3:91:F2:27:F8:C8:B2:6F:8A:87:32:73
                DirName:/C=DE/ST=Hessen/O=privacyidea/CN=CA001
                serial:FB:C8:EB:AC:83:CD:12:07

            X509v3 Extended Key Usage: 
                TLS Web Server Authentication
    Signature Algorithm: sha1WithRSAEncryption
         80:80:5c:85:f7:fa:6f:90:3e:4a:b7:0e:d3:7c:e1:e9:63:65:
         ee:e8:28:75:5d:19:53:ea:06:d5:06:94:0c:8b:74:6a:dd:06:
         a7:05:e6:11:44:f0:f1:14:9e:29:16:27:37:9c:b4:65:f6:68:
         38:ae:28:2f:29:cd:6f:e4:d2:c4:3b:1b:66:63:31:a0:19:62:
         c2:2b:c0:f0:da:48:d4:c9:35:49:5c:75:30:1f:60:4b:0f:2d:
         e8:d2:b3:6e:ea:f3:bc:87:1c:4d:ff:dd:dd:45:e2:45:62:61:
         96:f0:38:99:43:13:48:13:3b:7b:fa:01:ec:ab:48:58:6f:48:
         74:d0:18:5e:74:2a:d1:a8:04:cd:0a:d1:98:53:f1:89:69:d2:
         f7:04:1c:3f:bc:47:c1:ec:30:eb:4e:16:68:f3:be:6c:85:c5:
         c7:bb:6b:d0:8d:62:a2:f0:0a:0d:6a:f4:8a:0f:18:ec:53:1e:
         b9:16:42:6a:53:45:42:50:3e:d7:d2:0f:d0:c6:d6:9e:f7:e1:
         bf:fe:32:62:66:6a:e7:7b:44:97:7b:24:70:db:b0:78:04:87:
         4d:b6:51:89:98:04:a1:fa:5b:06:d1:19:d1:9f:5e:fb:52:04:
         32:b0:83:69:87:76:a5:05:64:61:d2:15:68:ab:ef:2a:99:35:
         7a:57:2a:47
-----BEGIN CERTIFICATE-----
MIIEFjCCAv6gAwIBAgIEEAAA1DANBgkqhkiG9w0BAQUFADBEMQswCQYDVQQGEwJE
RTEPMA0GA1UECAwGSGVzc2VuMRQwEgYDVQQKDAtwcml2YWN5aWRlYTEOMAwGA1UE
AwwFQ0EwMDEwHhcNMTYwNDI5MDg1NTM4WhcNMTcwNDI5MDg1NTM4WjBEMQ4wDAYD
VQQLEwVsb2NhbDEOMAwGA1UEAxMFY29ybnkxIjAgBgkqhkiG9w0BCQEWE2Nvcm55
QGNvcm5lbGludXguZGUwggEiMA0GCSqGSIb3DQEBAQUAA4IBDwAwggEKAoIBAQC9
vPXpxGk2t42ry8d5wVmW5gkXlG/Tk8syEdUOJOlt2SlbbQm7P7trY0xQBtatQBdS
gQXnIHqqnHQbzA6G/374tZtqzo4iC03IVKImwQ1uj8Tb04gfBZ6R1wSucZTx3rYE
pwH/+BwLxn1j5bb0I8moN8BhXesUGHSQKqkautY3Gbtobo0AcNQ0i1IkrDcUyBgr
s6WLdHiQvHr4g17j7wkItiu7tcmdQ6dXPSM8Lp4+BB35ZFfJ9r+o0J2tBPdCjprg
zWMfxU5GURVRqLvRLpmgouRbK6RjuQz4DD/JsBf2mezXmMsfH3tL0D0E/8ckPhZE
2bJ3liYDsVujSlHTnV2PAgMBAAGjggEOMIIBCjALBgNVHQ8EBAMCBaAwCQYDVR0T
BAIwADARBglghkgBhvhCAQEEBAMCBkAwMwYJYIZIAYb4QgENBCYWJE9wZW5TU0wg
R2VuZXJhdGVkIFNlcnZlciBDZXJ0aWZpY2F0ZTAdBgNVHQ4EFgQUYnUu1Yghfonr
F9z5qjzuqKWQK6swdAYDVR0jBG0wa4AU9KfAzJFGr2TzkfIn+Miyb4qHMnOhSKRG
MEQxCzAJBgNVBAYTAkRFMQ8wDQYDVQQIDAZIZXNzZW4xFDASBgNVBAoMC3ByaXZh
Y3lpZGVhMQ4wDAYDVQQDDAVDQTAwMYIJAPvI66yDzRIHMBMGA1UdJQQMMAoGCCsG
AQUFBwMBMA0GCSqGSIb3DQEBBQUAA4IBAQCAgFyF9/pvkD5Ktw7TfOHpY2Xu6Ch1
XRlT6gbVBpQMi3Rq3QanBeYRRPDxFJ4pFic3nLRl9mg4rigvKc1v5NLEOxtmYzGg
GWLCK8Dw2kjUyTVJXHUwH2BLDy3o0rNu6vO8hxxN/93dReJFYmGW8DiZQxNIEzt7
+gHsq0hYb0h00BhedCrRqATNCtGYU/GJadL3BBw/vEfB7DDrThZo875shcXHu2vQ
jWKi8AoNavSKDxjsUx65FkJqU0VCUD7X0g/Qxtae9+G//jJiZmrne0SXeyRw27B4
BIdNtlGJmASh+lsG0RnRn177UgQysINph3alBWRh0hVoq+8qmTV6VypH
-----END CERTIFICATE-----
