Certificate:
    Data:
        Version: 3 (0x2)
        Serial Number: 268435666 (0x100000d2)
    Signature Algorithm: sha1WithRSAEncryption
        Issuer: C=DE, ST=Hessen, O=privacyidea, CN=CA001
        Validity
            Not Before: Apr 29 08:45:05 2016 GMT
            Not After : Apr 29 08:45:05 2017 GMT
        Subject: OU=local, CN=corny/emailAddress=corny@cornelinux.de
        Subject Public Key Info:
            Public Key Algorithm: rsaEncryption
                Public-Key: (2048 bit)
                Modulus:
                    00:c7:00:eb:4f:97:85:fb:b9:46:70:c9:99:98:01:
                    9d:db:fa:d0:db:9e:bb:93:d0:66:43:2b:fe:f3:30:
                    92:00:d8:cf:fc:11:39:c9:a4:b2:9d:88:8f:53:9e:
                    df:92:75:28:7c:11:19:f0:66:da:1b:3e:00:e7:84:
                    db:d5:ab:53:13:e4:e1:10:47:0c:b3:68:a4:30:3a:
                    96:19:ea:d4:de:82:8b:f1:bd:b3:39:75:58:e1:d9:
                    d9:ba:1d:fe:cc:4a:68:5a:06:0a:05:22:8f:31:fd:
                    fa:73:c6:c0:80:eb:37:b0:94:32:af:13:cb:48:8c:
                    89:ad:15:4b:74:f4:8f:f6:6d:2b:c9:b2:6a:27:bc:
                    f9:fe:92:60:9a:bd:00:5c:b5:f5:b6:3c:3c:b6:71:
                    3d:13:c0:72:c4:e7:97:6d:ca:0a:fb:cc:f5:89:07:
                    c5:93:c5:f1:df:1a:fb:b0:66:ed:6b:e1:f8:a6:f9:
                    71:1b:02:0e:68:bb:87:bd:5c:42:36:e2:39:65:1d:
                    1f:01:79:c2:1e:6f:95:84:6c:72:2e:04:a5:07:80:
                    af:3b:de:41:07:74:5d:c3:e4:04:b5:45:29:2a:e4:
                    a1:bb:33:96:ac:aa:48:25:0d:ba:00:03:f3:56:96:
                    72:bf:00:51:51:54:f4:b8:f4:d0:d6:1e:17:42:78:
                    bf:4b
                Exponent: 65537 (0x10001)
        X509v3 extensions:
            X509v3 Key Usage: 
                Digital Signature, Key Encipherment
            X509v3 Basic Constraints: 
                CA:FALSE
            Netscape Cert Type: 
                SSL Server
            Netscape Comment: 
                OpenSSL Generated Server Certificate
            X509v3 Subject Key Identifier: 
                24:98:91:A2:48:15:12:B6:E0:B1:E5:04:21:EF:B7:67:0C:18:4E:4F
            X509v3 Authority Key Identifier: 
                keyid:F4:A7:C0:CC:91:46:AF:64:F3:91:F2:27:F8:C8:B2:6F:8A:87:32:73
                DirName:/C=DE/ST=Hessen/O=privacyidea/CN=CA001
                serial:FB:C8:EB:AC:83:CD:12:07

            X509v3 Extended Key Usage: 
                TLS Web Server Authentication
    Signature Algorithm: sha1WithRSAEncryption
         5d:d5:2e:44:2c:9c:1b:47:6b:84:6a:53:db:ea:5f:22:39:98:
         9f:98:d5:0c:14:eb:20:07:1c:11:4a:77:64:5d:51:68:8c:76:
         bd:6c:01:66:b1:82:66:86:22:63:fd:ef:71:bf:6b:7c:28:d0:
         a2:51:b7:07:f6:dc:c1:ad:bf:cc:fa:c1:9f:8b:21:b9:5e:4a:
         7a:3e:73:3b:67:11:d4:ff:ea:ae:81:62:e3:68:08:83:20:7d:
         2e:d6:16:a7:06:c3:a3:b0:61:8e:61:3e:5d:a1:68:ed:39:98:
         26:bc:e1:17:65:60:ae:33:05:d4:78:0c:dd:f3:a2:87:6a:dd:
         c9:ff:82:09:53:55:2d:d0:89:9b:cd:90:74:58:cb:d4:01:cd:
         8a:5f:f8:42:4f:fb:1e:d4:b8:7f:c2:d7:fa:52:f6:2b:e6:ee:
         ba:6f:57:98:5c:22:16:af:27:c7:bc:38:3f:7b:7b:0f:45:7d:
         95:24:59:95:44:a0:ac:cd:94:b6:82:14:d4:82:49:57:90:4e:
         c8:c4:30:07:e0:25:28:e4:84:72:fc:c2:4f:97:98:12:b4:c2:
         86:a9:93:2c:f1:2b:4b:ee:14:68:e6:73:c0:de:6e:37:0b:ce:
         41:99:65:d3:b8:b0:49:43:89:49:4d:df:2c:83:3f:94:d8:0a:
         d3:db:c4:ef
-----BEGIN CERTIFICATE-----
MIIEFjCCAv6gAwIBAgIEEAAA0jANBgkqhkiG9w0BAQUFADBEMQswCQYDVQQGEwJE
RTEPMA0GA1UECAwGSGVzc2VuMRQwEgYDVQQKDAtwcml2YWN5aWRlYTEOMAwGA1UE
AwwFQ0EwMDEwHhcNMTYwNDI5MDg0NTA1WhcNMTcwNDI5MDg0NTA1WjBEMQ4wDAYD
VQQLEwVsb2NhbDEOMAwGA1UEAxMFY29ybnkxIjAgBgkqhkiG9w0BCQEWE2Nvcm55
QGNvcm5lbGludXguZGUwggEiMA0GCSqGSIb3DQEBAQUAA4IBDwAwggEKAoIBAQDH
AOtPl4X7uUZwyZmYAZ3b+tDbnruT0GZDK/7zMJIA2M/8ETnJpLKdiI9Tnt+SdSh8
ERnwZtobPgDnhNvVq1MT5OEQRwyzaKQwOpYZ6tTegovxvbM5dVjh2dm6Hf7MSmha
BgoFIo8x/fpzxsCA6zewlDKvE8tIjImtFUt09I/2bSvJsmonvPn+kmCavQBctfW2
PDy2cT0TwHLE55dtygr7zPWJB8WTxfHfGvuwZu1r4fim+XEbAg5ou4e9XEI24jll
HR8BecIeb5WEbHIuBKUHgK873kEHdF3D5AS1RSkq5KG7M5asqkglDboAA/NWlnK/
AFFRVPS49NDWHhdCeL9LAgMBAAGjggEOMIIBCjALBgNVHQ8EBAMCBaAwCQYDVR0T
BAIwADARBglghkgBhvhCAQEEBAMCBkAwMwYJYIZIAYb4QgENBCYWJE9wZW5TU0wg
R2VuZXJhdGVkIFNlcnZlciBDZXJ0aWZpY2F0ZTAdBgNVHQ4EFgQUJJiRokgVErbg
seUEIe+3ZwwYTk8wdAYDVR0jBG0wa4AU9KfAzJFGr2TzkfIn+Miyb4qHMnOhSKRG
MEQxCzAJBgNVBAYTAkRFMQ8wDQYDVQQIDAZIZXNzZW4xFDASBgNVBAoMC3ByaXZh
Y3lpZGVhMQ4wDAYDVQQDDAVDQTAwMYIJAPvI66yDzRIHMBMGA1UdJQQMMAoGCCsG
AQUFBwMBMA0GCSqGSIb3DQEBBQUAA4IBAQBd1S5ELJwbR2uEalPb6l8iOZifmNUM
FOsgBxwRSndkXVFojHa9bAFmsYJmhiJj/e9xv2t8KNCiUbcH9tzBrb/M+sGfiyG5
Xkp6PnM7ZxHU/+qugWLjaAiDIH0u1hanBsOjsGGOYT5doWjtOZgmvOEXZWCuMwXU
eAzd86KHat3J/4IJU1Ut0ImbzZB0WMvUAc2KX/hCT/se1Lh/wtf6UvYr5u66b1eY
XCIWryfHvDg/e3sPRX2VJFmVRKCszZS2ghTUgklXkE7IxDAH4CUo5IRy/MJPl5gS
tMKGqZMs8StL7hRo5nPA3m43C85BmWXTuLBJQ4lJTd8sgz+U2ArT28Tv
-----END CERTIFICATE-----
