Certificate:
    Data:
        Version: 3 (0x2)
        Serial Number: 268435662 (0x100000ce)
    Signature Algorithm: sha1WithRSAEncryption
        Issuer: C=DE, ST=Hessen, O=privacyidea, CN=CA001
        Validity
            Not Before: May  4 06:21:23 2016 GMT
            Not After : May  4 06:21:23 2017 GMT
        Subject: OU=realm1, CN=cornelius/emailAddress=user@localhost.localdomain
        Subject Public Key Info:
            Public Key Algorithm: rsaEncryption
                Public-Key: (2048 bit)
                Modulus:
                    00:9d:0b:4a:80:15:e1:82:0d:59:84:28:b8:c5:6c:
                    6b:ac:ec:4f:e3:ae:88:5c:8d:f7:cf:7d:a8:a3:62:
                    b4:a0:09:70:a0:6c:23:76:3c:be:0e:fa:1f:22:c4:
                    ff:ed:0f:fd:a6:25:53:7c:91:b2:07:bd:c8:13:79:
                    d7:10:6a:48:c2:6f:4a:22:55:1e:27:d8:49:7e:94:
                    a4:69:7a:13:c6:63:68:6f:d0:c5:bf:63:61:78:db:
                    20:2f:7c:4e:5a:ad:cf:77:a5:e0:af:49:2f:2f:95:
                    cf:d7:58:ae:16:35:1b:c1:25:48:a1:b0:a4:a4:44:
                    9f:55:53:bc:fc:51:76:f3:da:99:b4:cd:88:b0:67:
                    86:00:bb:e8:a6:94:b6:32:bb:1c:02:82:48:21:af:
                    4b:b1:34:68:c5:8f:36:fd:1a:e6:9e:3d:df:78:2c:
                    5f:fe:32:f4:22:f9:82:1b:94:8a:db:c7:74:c5:11:
                    47:6f:c3:f0:8a:ee:82:e4:d0:23:a0:d5:31:3a:ff:
                    6c:cf:5d:3f:5f:2f:9b:f6:cd:67:98:ee:35:0b:34:
                    63:38:5f:66:3a:17:d7:44:03:76:c7:85:8a:ee:5c:
                    6e:cc:c5:f9:4b:c3:95:a1:4a:2d:be:4d:3e:c2:f3:
                    53:76:2c:4b:49:b6:ed:17:6e:0f:9f:c7:ad:fd:9b:
                    12:75
                Exponent: 65537 (0x10001)
        X509v3 extensions:
            X509v3 Key Usage: 
                Digital Signature, Key Encipherment
            X509v3 Basic Constraints: 
                CA:FALSE
            Netscape Cert Type: 
                SSL Server
            Netscape Comment: 
                OpenSSL Generated Server Certificate
            X509v3 Subject Key Identifier: 
                BC:C5:A9:DB:2A:9D:F9:05:AC:49:93:87:D3:DC:C2:7C:9E:92:7A:37
            X509v3 Authority Key Identifier: 
                keyid:F4:A7:C0:CC:91:46:AF:64:F3:91:F2:27:F8:C8:B2:6F:8A:87:32:73
                DirName:/C=DE/ST=Hessen/O=privacyidea/CN=CA001
                serial:FB:C8:EB:AC:83:CD:12:07

            X509v3 Extended Key Usage: 
                TLS Web Server Authentication
    Signature Algorithm: sha1WithRSAEncryption
         95:e0:e7:f6:7d:b7:b6:df:c5:a5:bd:44:77:e8:a5:55:26:37:
         ad:14:f4:e1:99:52:ac:2c:a9:01:e3:55:5c:65:cb:f6:a9:12:
         f9:79:e6:a1:fe:f4:ff:d9:60:7a:03:d6:c0:74:1b:9c:de:79:
         58:6b:8a:5c:e9:c6:76:5d:7d:ad:89:5e:4d:9a:7d:10:2f:b1:
         40:fe:3a:49:1f:49:57:68:55:aa:c2:f9:94:55:72:64:65:a8:
         ce:63:11:9a:17:5f:43:a7:31:10:53:fe:ef:f3:49:d6:3d:51:
         c6:d3:a4:fc:d8:d7:e1:3f:92:b5:d8:37:22:14:99:87:53:bc:
         f9:20:97:e6:99:38:94:62:18:e2:ad:6f:76:08:82:f3:3e:0e:
         de:b4:ce:be:98:64:fa:1a:57:1b:3c:de:52:e0:69:ac:dc:02:
         8b:93:af:e6:e6:be:f6:08:31:af:37:c1:1b:ca:dd:d6:23:12:
         3e:06:cf:f9:42:96:6b:13:5e:a8:34:51:09:e5:0c:b8:eb:a0:
         3c:3b:23:c4:96:8f:01:b9:46:fa:a0:59:a5:af:1b:19:7d:b4:
         29:78:59:13:af:98:04:86:ae:e2:68:b0:58:f0:55:1c:4c:0d:
         79:31:77:90:bb:6c:ab:d5:6a:c5:04:6c:a4:20:31:ff:e7:9d:
         04:39:bf:8c
-----BEGIN CERTIFICATE-----
MIIEIjCCAwqgAwIBAgIEEAAAzjANBgkqhkiG9w0BAQUFADBEMQswCQYDVQQGEwJE
RTEPMA0GA1UECAwGSGVzc2VuMRQwEgYDVQQKDAtwcml2YWN5aWRlYTEOMAwGA1UE
AwwFQ0EwMDEwHhcNMTYwNTA0MDYyMTIzWhcNMTcwNTA0MDYyMTIzWjBQMQ8wDQYD
VQQLEwZyZWFsbTExEjAQBgNVBAMTCWNvcm5lbGl1czEpMCcGCSqGSIb3DQEJARYa
dXNlckBsb2NhbGhvc3QubG9jYWxkb21haW4wggEiMA0GCSqGSIb3DQEBAQUAA4IB
DwAwggEKAoIBAQCdC0qAFeGCDVmEKLjFbGus7E/jrohcjffPfaijYrSgCXCgbCN2
PL4O+h8ixP/tD/2mJVN8kbIHvcgTedcQakjCb0oiVR4n2El+lKRpehPGY2hv0MW/
Y2F42yAvfE5arc93peCvSS8vlc/XWK4WNRvBJUihsKSkRJ9VU7z8UXbz2pm0zYiw
Z4YAu+imlLYyuxwCgkghr0uxNGjFjzb9GuaePd94LF/+MvQi+YIblIrbx3TFEUdv
w/CK7oLk0COg1TE6/2zPXT9fL5v2zWeY7jULNGM4X2Y6F9dEA3bHhYruXG7MxflL
w5WhSi2+TT7C81N2LEtJtu0Xbg+fx639mxJ1AgMBAAGjggEOMIIBCjALBgNVHQ8E
BAMCBaAwCQYDVR0TBAIwADARBglghkgBhvhCAQEEBAMCBkAwMwYJYIZIAYb4QgEN
BCYWJE9wZW5TU0wgR2VuZXJhdGVkIFNlcnZlciBDZXJ0aWZpY2F0ZTAdBgNVHQ4E
FgQUvMWp2yqd+QWsSZOH09zCfJ6SejcwdAYDVR0jBG0wa4AU9KfAzJFGr2TzkfIn
+Miyb4qHMnOhSKRGMEQxCzAJBgNVBAYTAkRFMQ8wDQYDVQQIDAZIZXNzZW4xFDAS
BgNVBAoMC3ByaXZhY3lpZGVhMQ4wDAYDVQQDDAVDQTAwMYIJAPvI66yDzRIHMBMG
A1UdJQQMMAoGCCsGAQUFBwMBMA0GCSqGSIb3DQEBBQUAA4IBAQCV4Of2fbe238Wl
vUR36KVVJjetFPThmVKsLKkB41VcZcv2qRL5eeah/vT/2WB6A9bAdBuc3nlYa4pc
6cZ2XX2tiV5Nmn0QL7FA/jpJH0lXaFWqwvmUVXJkZajOYxGaF19DpzEQU/7v80nW
PVHG06T82NfhP5K12DciFJmHU7z5IJfmmTiUYhjirW92CILzPg7etM6+mGT6Glcb
PN5S4Gms3AKLk6/m5r72CDGvN8Ebyt3WIxI+Bs/5QpZrE16oNFEJ5Qy466A8OyPE
lo8BuUb6oFmlrxsZfbQpeFkTr5gEhq7iaLBY8FUcTA15MXeQu2yr1WrFBGykIDH/
550EOb+M
-----END CERTIFICATE-----
