Certificate:
    Data:
        Version: 3 (0x2)
        Serial Number: 268435657 (0x100000c9)
    Signature Algorithm: sha1WithRSAEncryption
        Issuer: C=DE, ST=Hessen, O=privacyidea, CN=CA001
        Validity
            Not Before: May  4 06:17:14 2016 GMT
            Not After : May  4 06:17:14 2017 GMT
        Subject: C=DE, ST=Hessen, O=privacyidea, CN=requester.localdomain
        Subject Public Key Info:
            Public Key Algorithm: rsaEncryption
                Public-Key: (2048 bit)
                Modulus:
                    00:cd:be:14:4f:fa:ce:01:3f:42:22:1b:1d:9c:af:
                    dd:92:d2:7f:db:6c:b7:3e:39:43:43:6b:13:03:f1:
                    05:f4:07:74:bc:76:69:28:0b:af:19:8e:d7:fc:e3:
                    cd:c6:58:f2:ca:7f:08:6d:53:fc:07:02:44:24:c6:
                    b4:34:4c:8c:04:fe:33:0e:40:e2:20:ba:02:73:5a:
                    f7:f5:4f:63:6e:cc:c6:b6:df:54:1d:37:39:7d:51:
                    36:26:5f:bd:dc:3f:a8:8b:6b:a2:ae:b6:9d:d6:21:
                    e7:df:41:b8:7a:28:2a:68:48:ca:a8:2d:ed:e1:e9:
                    46:5e:5a:72:6d:b4:84:38:87:91:fd:94:11:0b:28:
                    84:c6:c2:2f:2a:fb:01:f9:36:7a:09:75:d1:33:88:
                    3c:73:41:5b:c8:bf:94:89:70:a1:f0:c0:b9:2e:50:
                    53:1e:b1:17:64:69:f4:2d:81:e0:a9:0d:0e:32:e9:
                    ba:55:8a:85:f1:1b:6f:49:79:b4:7f:88:c3:0d:3e:
                    54:88:9b:3d:1f:38:8c:04:f3:ee:6a:63:2b:f5:c6:
                    db:b4:83:aa:c4:78:41:3a:7d:4b:e1:c8:3e:71:ca:
                    1b:61:59:ea:c6:c4:ca:32:5e:c9:e9:bf:12:29:e6:
                    c6:c3:63:fe:a0:55:da:7a:f1:60:98:4d:26:ed:fa:
                    70:2d
                Exponent: 65537 (0x10001)
        X509v3 extensions:
            X509v3 Key Usage: 
                Digital Signature, Key Encipherment
            X509v3 Basic Constraints: 
                CA:FALSE
            Netscape Cert Type: 
                SSL Server
            Netscape Comment: 
                OpenSSL Generated Server Certificate
            X509v3 Subject Key Identifier: 
                53:3F:ED:5D:09:07:B3:65:7B:AB:45:C9:24:5B:09:77:80:0A:96:ED
            X509v3 Authority Key Identifier: 
                keyid:F4:A7:C0:CC:91:46:AF:64:F3:91:F2:27:F8:C8:B2:6F:8A:87:32:73
                DirName:/C=DE/ST=Hessen/O=privacyidea/CN=CA001
                serial:FB:C8:EB:AC:83:CD:12:07

            X509v3 Extended Key Usage: 
                TLS Web Server Authentication
    Signature Algorithm: sha1WithRSAEncryption
         66:63:a3:df:c9:d8:79:df:64:53:66:f5:d4:90:58:88:d5:6d:
         17:1f:c8:5f:10:bc:d9:11:d3:ac:ae:79:41:00:75:8a:8f:03:
         cf:9e:3a:76:b8:d4:b7:e0:d2:9f:64:e6:54:5e:3c:58:bf:66:
         f1:a9:7f:dd:76:7b:9b:06:f0:6a:08:2b:a6:96:7a:b6:8f:80:
         08:64:ca:3e:6b:94:9b:24:31:96:a9:ec:14:44:ac:17:1d:b5:
         d1:98:9d:1a:f0:75:95:e3:e1:22:25:bb:4f:90:ee:28:3a:b3:
         c3:d9:e9:14:10:8d:32:a6:f6:47:a6:f4:71:94:f6:6d:9f:27:
         96:95:4e:6b:79:83:6f:33:29:3e:88:bb:76:91:5b:3f:d3:29:
         10:dc:5b:70:26:d1:3d:3d:14:7f:13:ac:81:5a:8e:ed:f1:fc:
         52:a3:e5:6e:72:e6:1b:0f:cd:f8:ea:ec:87:35:e9:2c:6b:6d:
         54:f9:10:74:c8:8f:37:4c:1d:17:98:01:45:ce:e8:eb:7b:a0:
         8c:4d:bc:63:23:2e:9c:c9:ca:1e:a1:79:1a:48:4e:03:4a:b5:
         f2:85:c4:3b:56:82:7a:48:cd:a6:c2:ef:5b:4c:27:cb:cd:06:
         e1:f6:f4:a5:4d:12:47:ee:05:a3:a6:5f:9a:79:5a:56:95:bd:
         fc:e4:b9:c9
-----BEGIN CERTIFICATE-----
MIIEJjCCAw6gAwIBAgIEEAAAyTANBgkqhkiG9w0BAQUFADBEMQswCQYDVQQGEwJE
RTEPMA0GA1UECAwGSGVzc2VuMRQwEgYDVQQKDAtwcml2YWN5aWRlYTEOMAwGA1UE
AwwFQ0EwMDEwHhcNMTYwNTA0MDYxNzE0WhcNMTcwNTA0MDYxNzE0WjBUMQswCQYD
VQQGEwJERTEPMA0GA1UECAwGSGVzc2VuMRQwEgYDVQQKDAtwcml2YWN5aWRlYTEe
MBwGA1UEAwwVcmVxdWVzdGVyLmxvY2FsZG9tYWluMIIBIjANBgkqhkiG9w0BAQEF
AAOCAQ8AMIIBCgKCAQEAzb4UT/rOAT9CIhsdnK/dktJ/22y3PjlDQ2sTA/EF9Ad0
vHZpKAuvGY7X/OPNxljyyn8IbVP8BwJEJMa0NEyMBP4zDkDiILoCc1r39U9jbszG
tt9UHTc5fVE2Jl+93D+oi2uirrad1iHn30G4eigqaEjKqC3t4elGXlpybbSEOIeR
/ZQRCyiExsIvKvsB+TZ6CXXRM4g8c0FbyL+UiXCh8MC5LlBTHrEXZGn0LYHgqQ0O
Mum6VYqF8RtvSXm0f4jDDT5UiJs9HziMBPPuamMr9cbbtIOqxHhBOn1L4cg+ccob
YVnqxsTKMl7J6b8SKebGw2P+oFXaevFgmE0m7fpwLQIDAQABo4IBDjCCAQowCwYD
VR0PBAQDAgWgMAkGA1UdEwQCMAAwEQYJYIZIAYb4QgEBBAQDAgZAMDMGCWCGSAGG
+EIBDQQmFiRPcGVuU1NMIEdlbmVyYXRlZCBTZXJ2ZXIgQ2VydGlmaWNhdGUwHQYD
VR0OBBYEFFM/7V0JB7Nle6tFySRbCXeACpbtMHQGA1UdIwRtMGuAFPSnwMyRRq9k
85HyJ/jIsm+KhzJzoUikRjBEMQswCQYDVQQGEwJERTEPMA0GA1UECAwGSGVzc2Vu
MRQwEgYDVQQKDAtwcml2YWN5aWRlYTEOMAwGA1UEAwwFQ0EwMDGCCQD7yOusg80S
BzATBgNVHSUEDDAKBggrBgEFBQcDATANBgkqhkiG9w0BAQUFAAOCAQEAZmOj38nY
ed9kU2b11JBYiNVtFx/IXxC82RHTrK55QQB1io8Dz546drjUt+DSn2TmVF48WL9m
8al/3XZ7mwbwaggrppZ6to+ACGTKPmuUmyQxlqnsFESsFx210ZidGvB1lePhIiW7
T5DuKDqzw9npFBCNMqb2R6b0cZT2bZ8nlpVOa3mDbzMpPoi7dpFbP9MpENxbcCbR
PT0UfxOsgVqO7fH8UqPlbnLmGw/N+OrshzXpLGttVPkQdMiPN0wdF5gBRc7o63ug
jE28YyMunMnKHqF5GkhOA0q18oXEO1aCekjNpsLvW0wny80G4fb0pU0SR+4Fo6Zf
mnlaVpW9/OS5yQ==
-----END CERTIFICATE-----
