Certificate:
    Data:
        Version: 3 (0x2)
        Serial Number: 268435665 (0x100000d1)
    Signature Algorithm: sha1WithRSAEncryption
        Issuer: C=DE, ST=Hessen, O=privacyidea, CN=CA001
        Validity
            Not Before: Apr 29 08:43:10 2016 GMT
            Not After : Apr 29 08:43:10 2017 GMT
        Subject: OU=local, CN=corny/emailAddress=corny@cornelinux.de
        Subject Public Key Info:
            Public Key Algorithm: rsaEncryption
                Public-Key: (2048 bit)
                Modulus:
                    00:c3:8a:41:b7:18:03:cd:b0:ae:c9:fb:7d:cf:2e:
                    08:ac:26:63:c0:c8:61:5c:0c:84:ef:cf:75:0e:ff:
                    06:93:1f:2e:30:ab:50:35:7d:dd:52:cc:ee:7b:b4:
                    fc:9e:6b:b9:11:61:e3:76:ba:79:f9:3b:3f:92:99:
                    67:50:4f:58:fd:b0:d9:cc:7e:e1:c4:21:08:56:2f:
                    e9:05:20:6a:19:a1:ae:4b:74:32:b4:34:6a:2d:ea:
                    fe:e7:f4:49:fc:36:f3:f0:20:42:d8:9e:22:ed:fe:
                    9d:93:7e:6e:30:eb:5b:b2:04:2c:59:bc:90:42:f7:
                    52:e2:60:19:80:61:2a:53:36:14:a7:32:a1:94:92:
                    78:ed:38:30:ca:37:d0:8b:7f:72:af:90:a6:fc:60:
                    76:63:48:ac:26:5b:3b:6c:10:d1:30:87:40:8a:f1:
                    6b:37:34:a5:74:c6:1f:3b:0a:f0:cd:d9:84:71:7e:
                    7c:ad:2c:c7:a4:2c:ad:09:c4:52:f2:84:20:56:02:
                    06:1c:17:60:46:73:2a:ac:26:ce:76:68:2e:08:f2:
                    99:ce:26:f0:85:d5:c5:13:20:18:94:57:f0:5b:29:
                    58:76:84:55:55:bd:e3:1e:69:f4:c9:7c:90:4a:0d:
                    61:d6:af:d4:9c:5e:71:10:54:3e:90:ee:60:34:11:
                    6b:19
                Exponent: 65537 (0x10001)
        X509v3 extensions:
            X509v3 Key Usage: 
                Digital Signature, Key Encipherment
            X509v3 Basic Constraints: 
                CA:FALSE
            Netscape Cert Type: 
                SSL Server
            Netscape Comment: 
                OpenSSL Generated Server Certificate
            X509v3 Subject Key Identifier: 
                C5:F2:D1:4A:0F:86:4B:DC:4D:05:B4:48:BC:99:C9:59:78:B3:FD:11
            X509v3 Authority Key Identifier: 
                keyid:F4:A7:C0:CC:91:46:AF:64:F3:91:F2:27:F8:C8:B2:6F:8A:87:32:73
                DirName:/C=DE/ST=Hessen/O=privacyidea/CN=CA001
                serial:FB:C8:EB:AC:83:CD:12:07

            X509v3 Extended Key Usage: 
                TLS Web Server Authentication
    Signature Algorithm: sha1WithRSAEncryption
         a5:c1:be:8f:70:ad:4b:00:98:b2:df:dc:a9:d4:a4:b5:c5:b8:
         c1:c6:dc:27:34:05:01:65:b2:2e:17:fc:e2:b9:21:7b:fc:c4:
         3f:16:77:e8:6c:f9:85:27:3e:9c:78:1d:29:9c:57:7e:5e:4e:
         e0:e5:48:ae:1e:99:09:21:07:f6:14:25:a5:3a:89:3a:07:d1:
         3d:23:27:cf:68:bd:2b:67:c3:48:2a:f7:5c:a8:40:21:ce:fa:
         dc:e8:72:20:7c:ce:41:4b:28:6e:04:6f:d9:84:eb:6e:2b:e9:
         62:97:39:ab:ff:b6:2a:02:e1:6d:db:9e:57:b6:31:17:5a:da:
         e3:66:1b:4c:67:07:cd:24:d2:37:33:88:c9:2b:2e:a4:61:c3:
         ff:c9:3b:fd:73:b0:2e:28:ca:64:b3:53:df:64:94:56:be:b1:
         01:8f:39:d0:a6:f3:ac:ab:ae:c5:24:5b:d1:5c:10:0e:af:bf:
         71:e5:92:c9:80:21:f8:54:30:f9:5b:34:8e:a4:d3:9d:fa:58:
         0d:e0:78:9a:cd:1c:0a:cc:65:d9:62:26:78:02:56:19:80:86:
         9a:cf:32:54:5a:e6:17:a9:0f:6f:bf:c5:86:a1:c0:e6:7b:1b:
         05:47:80:59:a1:95:a6:07:30:c4:7b:e7:b0:52:a0:6d:ca:df:
         8e:a1:8d:af
-----BEGIN CERTIFICATE-----
MIIEFjCCAv6gAwIBAgIEEAAA0TANBgkqhkiG9w0BAQUFADBEMQswCQYDVQQGEwJE
RTEPMA0GA1UECAwGSGVzc2VuMRQwEgYDVQQKDAtwcml2YWN5aWRlYTEOMAwGA1UE
AwwFQ0EwMDEwHhcNMTYwNDI5MDg0MzEwWhcNMTcwNDI5MDg0MzEwWjBEMQ4wDAYD
VQQLEwVsb2NhbDEOMAwGA1UEAxMFY29ybnkxIjAgBgkqhkiG9w0BCQEWE2Nvcm55
QGNvcm5lbGludXguZGUwggEiMA0GCSqGSIb3DQEBAQUAA4IBDwAwggEKAoIBAQDD
ikG3GAPNsK7J+33PLgisJmPAyGFcDITvz3UO/waTHy4wq1A1fd1SzO57tPyea7kR
YeN2unn5Oz+SmWdQT1j9sNnMfuHEIQhWL+kFIGoZoa5LdDK0NGot6v7n9En8NvPw
IELYniLt/p2Tfm4w61uyBCxZvJBC91LiYBmAYSpTNhSnMqGUknjtODDKN9CLf3Kv
kKb8YHZjSKwmWztsENEwh0CK8Ws3NKV0xh87CvDN2YRxfnytLMekLK0JxFLyhCBW
AgYcF2BGcyqsJs52aC4I8pnOJvCF1cUTIBiUV/BbKVh2hFVVveMeafTJfJBKDWHW
r9ScXnEQVD6Q7mA0EWsZAgMBAAGjggEOMIIBCjALBgNVHQ8EBAMCBaAwCQYDVR0T
BAIwADARBglghkgBhvhCAQEEBAMCBkAwMwYJYIZIAYb4QgENBCYWJE9wZW5TU0wg
R2VuZXJhdGVkIFNlcnZlciBDZXJ0aWZpY2F0ZTAdBgNVHQ4EFgQUxfLRSg+GS9xN
BbRIvJnJWXiz/REwdAYDVR0jBG0wa4AU9KfAzJFGr2TzkfIn+Miyb4qHMnOhSKRG
MEQxCzAJBgNVBAYTAkRFMQ8wDQYDVQQIDAZIZXNzZW4xFDASBgNVBAoMC3ByaXZh
Y3lpZGVhMQ4wDAYDVQQDDAVDQTAwMYIJAPvI66yDzRIHMBMGA1UdJQQMMAoGCCsG
AQUFBwMBMA0GCSqGSIb3DQEBBQUAA4IBAQClwb6PcK1LAJiy39yp1KS1xbjBxtwn
NAUBZbIuF/ziuSF7/MQ/FnfobPmFJz6ceB0pnFd+Xk7g5UiuHpkJIQf2FCWlOok6
B9E9IyfPaL0rZ8NIKvdcqEAhzvrc6HIgfM5BSyhuBG/ZhOtuK+lilzmr/7YqAuFt
255XtjEXWtrjZhtMZwfNJNI3M4jJKy6kYcP/yTv9c7AuKMpks1PfZJRWvrEBjznQ
pvOsq67FJFvRXBAOr79x5ZLJgCH4VDD5WzSOpNOd+lgN4HiazRwKzGXZYiZ4AlYZ
gIaazzJUWuYXqQ9vv8WGocDmexsFR4BZoZWmBzDEe+ewUqBtyt+OoY2v
-----END CERTIFICATE-----
