Certificate:
    Data:
        Version: 3 (0x2)
        Serial Number: 268435660 (0x100000cc)
    Signature Algorithm: sha1WithRSAEncryption
        Issuer: C=DE, ST=Hessen, O=privacyidea, CN=CA001
        Validity
            Not Before: May  4 06:18:47 2016 GMT
            Not After : May  4 06:18:47 2017 GMT
        Subject: CN=Steve Test/emailAddress=steve@openssl.org
        Subject Public Key Info:
            Public Key Algorithm: rsaEncryption
                Public-Key: (2048 bit)
                Modulus:
                    00:d2:81:89:20:51:48:0f:73:f4:11:32:24:d5:1f:
                    1c:fd:5c:f5:b6:e6:c5:f0:52:81:dc:d2:af:66:4a:
                    7c:93:31:61:5c:af:d1:6d:06:70:03:60:7c:72:0c:
                    88:dd:49:cd:9e:02:6c:d2:5a:d7:53:0f:f3:da:be:
                    69:64:b5:0f:0c:00:e3:b3:50:47:a3:b3:9b:ba:13:
                    50:d6:58:5a:4b:ab:39:e0:11:ca:0a:27:67:03:78:
                    22:66:6d:92:1e:1b:5c:49:ae:e6:6b:d1:8e:3b:9d:
                    06:d3:c6:ac:4d:53:43:10:ab:e8:96:c1:87:82:97:
                    99:8f:20:d3:99:12:37:31:84:e1:8a:ff:29:03:5f:
                    22:90:3e:7f:9b:e0:20:c1:ad:dc:ae:4c:39:1a:31:
                    96:17:02:8c:b2:d9:b4:0d:20:12:9b:7d:86:54:fd:
                    33:fd:c1:2a:62:46:f8:60:96:cf:6e:01:6f:22:df:
                    13:47:e7:97:ec:05:72:23:a3:62:f8:fa:ef:ac:9c:
                    72:f0:37:cb:2f:37:cf:90:a8:27:51:86:c6:d7:78:
                    08:8f:7e:25:a2:15:70:a2:fb:1c:b6:15:5e:a0:97:
                    8b:81:4c:09:28:8a:27:3b:94:bc:71:db:5b:71:37:
                    9a:2b:16:e0:6f:b5:c9:f5:4b:4f:20:ba:65:cf:af:
                    ad:ad
                Exponent: 65537 (0x10001)
        X509v3 extensions:
            X509v3 Key Usage: 
                Digital Signature, Key Encipherment
            X509v3 Basic Constraints: 
                CA:FALSE
            Netscape Cert Type: 
                SSL Server
            Netscape Comment: 
                OpenSSL Generated Server Certificate
            X509v3 Subject Key Identifier: 
                E5:25:6D:3E:AF:0D:DD:3F:4C:F2:45:19:39:D5:14:DB:7E:9C:C0:AD
            X509v3 Authority Key Identifier: 
                keyid:F4:A7:C0:CC:91:46:AF:64:F3:91:F2:27:F8:C8:B2:6F:8A:87:32:73
                DirName:/C=DE/ST=Hessen/O=privacyidea/CN=CA001
                serial:FB:C8:EB:AC:83:CD:12:07

            X509v3 Extended Key Usage: 
                TLS Web Server Authentication
    Signature Algorithm: sha1WithRSAEncryption
         1d:95:d4:64:48:a3:e8:af:51:2d:6c:66:8f:7a:47:de:3c:70:
         38:99:59:72:fa:53:dd:ef:a6:a3:c6:41:57:20:15:4e:c5:9c:
         b8:e9:95:69:e6:23:47:5e:e3:ee:ff:56:77:98:c8:ee:d6:d5:
         20:34:f6:1c:b7:15:a2:2c:16:59:57:8e:58:74:03:3e:3c:05:
         77:79:dd:b0:fa:ed:10:b1:20:ae:91:3e:42:70:a5:4a:48:af:
         fb:7e:79:30:71:5f:ec:ed:33:1e:25:32:85:02:53:8e:ee:0c:
         f4:90:20:59:d6:56:8c:72:33:49:e7:76:86:ff:a3:02:07:cc:
         47:6b:31:b5:6e:05:cb:ff:23:7e:7c:e0:d4:9a:28:e9:b1:c8:
         62:16:ae:97:23:d6:47:fc:48:d8:9c:f7:14:2a:3d:8b:93:b0:
         a6:5a:b2:87:45:f6:ce:6c:9b:41:df:b4:2b:c1:5a:1e:8d:2a:
         89:6d:27:a3:2e:e6:0b:42:9d:27:e0:15:87:b8:c9:20:aa:61:
         f4:22:80:fc:d2:cc:2e:e4:3d:2b:02:c6:cf:f1:c8:3a:f9:a2:
         de:23:9e:3f:ce:c0:5a:4f:3c:02:89:1e:50:aa:e9:f2:89:0b:
         40:2d:76:c9:db:17:c6:9d:7d:cc:5f:0b:1c:1c:21:05:3e:cd:
         e6:16:c3:87
-----BEGIN CERTIFICATE-----
MIIECTCCAvGgAwIBAgIEEAAAzDANBgkqhkiG9w0BAQUFADBEMQswCQYDVQQGEwJE
RTEPMA0GA1UECAwGSGVzc2VuMRQwEgYDVQQKDAtwcml2YWN5aWRlYTEOMAwGA1UE
AwwFQ0EwMDEwHhcNMTYwNTA0MDYxODQ3WhcNMTcwNTA0MDYxODQ3WjA3MRMwEQYD
VQQDEwpTdGV2ZSBUZXN0MSAwHgYJKoZIhvcNAQkBFhFzdGV2ZUBvcGVuc3NsLm9y
ZzCCASIwDQYJKoZIhvcNAQEBBQADggEPADCCAQoCggEBANKBiSBRSA9z9BEyJNUf
HP1c9bbmxfBSgdzSr2ZKfJMxYVyv0W0GcANgfHIMiN1JzZ4CbNJa11MP89q+aWS1
DwwA47NQR6Ozm7oTUNZYWkurOeARygonZwN4ImZtkh4bXEmu5mvRjjudBtPGrE1T
QxCr6JbBh4KXmY8g05kSNzGE4Yr/KQNfIpA+f5vgIMGt3K5MORoxlhcCjLLZtA0g
Ept9hlT9M/3BKmJG+GCWz24BbyLfE0fnl+wFciOjYvj676yccvA3yy83z5CoJ1GG
xtd4CI9+JaIVcKL7HLYVXqCXi4FMCSiKJzuUvHHbW3E3misW4G+1yfVLTyC6Zc+v
ra0CAwEAAaOCAQ4wggEKMAsGA1UdDwQEAwIFoDAJBgNVHRMEAjAAMBEGCWCGSAGG
+EIBAQQEAwIGQDAzBglghkgBhvhCAQ0EJhYkT3BlblNTTCBHZW5lcmF0ZWQgU2Vy
dmVyIENlcnRpZmljYXRlMB0GA1UdDgQWBBTlJW0+rw3dP0zyRRk51RTbfpzArTB0
BgNVHSMEbTBrgBT0p8DMkUavZPOR8if4yLJviocyc6FIpEYwRDELMAkGA1UEBhMC
REUxDzANBgNVBAgMBkhlc3NlbjEUMBIGA1UECgwLcHJpdmFjeWlkZWExDjAMBgNV
BAMMBUNBMDAxggkA+8jrrIPNEgcwEwYDVR0lBAwwCgYIKwYBBQUHAwEwDQYJKoZI
hvcNAQEFBQADggEBAB2V1GRIo+ivUS1sZo96R948cDiZWXL6U93vpqPGQVcgFU7F
nLjplWnmI0de4+7/VneYyO7W1SA09hy3FaIsFllXjlh0Az48BXd53bD67RCxIK6R
PkJwpUpIr/t+eTBxX+ztMx4lMoUCU47uDPSQIFnWVoxyM0nndob/owIHzEdrMbVu
Bcv/I3584NSaKOmxyGIWrpcj1kf8SNic9xQqPYuTsKZasodF9s5sm0HftCvBWh6N
KoltJ6Mu5gtCnSfgFYe4ySCqYfQigPzSzC7kPSsCxs/xyDr5ot4jnj/OwFpPPAKJ
HlCq6fKJC0AtdsnbF8adfcxfCxwcIQU+zeYWw4c=
-----END CERTIFICATE-----
