Certificate:
    Data:
        Version: 3 (0x2)
        Serial Number: 268435667 (0x100000d3)
    Signature Algorithm: sha1WithRSAEncryption
        Issuer: C=DE, ST=Hessen, O=privacyidea, CN=CA001
        Validity
            Not Before: Apr 29 08:46:30 2016 GMT
            Not After : Apr 29 08:46:30 2017 GMT
        Subject: OU=local, CN=corny/emailAddress=corny@cornelinux.de
        Subject Public Key Info:
            Public Key Algorithm: rsaEncryption
                Public-Key: (2048 bit)
                Modulus:
                    00:a4:ac:ca:cb:43:41:dc:ca:84:b6:9e:53:d2:18:
                    d9:94:cb:0c:07:79:e5:54:26:d1:84:b3:00:09:00:
                    4b:c1:c4:cc:c4:9a:7d:4c:a1:b1:d1:91:dc:d5:65:
                    fa:b1:b6:59:ee:9b:88:b6:88:ff:6c:c5:7d:de:fc:
                    47:e7:83:6c:fe:08:eb:3b:4a:f1:00:0d:60:ef:ef:
                    8b:13:0d:80:12:36:bc:15:3a:7c:5f:52:f0:87:4f:
                    ca:36:d7:09:5e:10:61:9c:83:46:54:f0:9c:fc:a2:
                    c8:e3:c1:ff:95:7e:e3:9f:cd:24:c3:b0:1c:ff:ca:
                    41:de:8b:ac:af:a9:8e:6a:d6:b5:a1:67:5a:26:41:
                    e1:5b:ee:48:2a:70:75:fd:55:19:aa:37:ec:0f:07:
                    b7:ab:25:e1:5e:96:9d:e6:04:78:3a:69:64:b3:b9:
                    4b:20:9b:3e:7d:c0:71:ef:1e:e8:d1:33:53:78:98:
                    4c:b7:af:49:b5:c1:81:16:e8:c4:2a:05:1c:56:0f:
                    f2:64:25:b7:6f:ab:41:48:76:66:ae:b6:99:3a:bd:
                    e4:ab:02:5b:90:43:e8:56:0f:b8:58:82:f6:ab:23:
                    6e:57:11:57:6b:99:19:23:a2:b0:52:2c:85:29:fb:
                    a8:b2:4f:4d:5b:8b:f6:0a:53:e9:58:d1:47:19:95:
                    84:49
                Exponent: 65537 (0x10001)
        X509v3 extensions:
            X509v3 Key Usage: 
                Digital Signature, Key Encipherment
            X509v3 Basic Constraints: 
                CA:FALSE
            Netscape Cert Type: 
                SSL Server
            Netscape Comment: 
                OpenSSL Generated Server Certificate
            X509v3 Subject Key Identifier: 
                17:AA:84:4D:18:55:05:3A:10:B7:5D:28:3F:EF:9D:0C:70:D2:E0:2B
            X509v3 Authority Key Identifier: 
                keyid:F4:A7:C0:CC:91:46:AF:64:F3:91:F2:27:F8:C8:B2:6F:8A:87:32:73
                DirName:/C=DE/ST=Hessen/O=privacyidea/CN=CA001
                serial:FB:C8:EB:AC:83:CD:12:07

            X509v3 Extended Key Usage: 
                TLS Web Server Authentication
    Signature Algorithm: sha1WithRSAEncryption
         33:bd:6a:32:07:f3:b6:26:19:0e:a4:cc:8c:a9:c0:ad:99:76:
         71:31:ea:d7:e8:74:82:81:8c:a1:33:98:3a:a4:54:00:dc:17:
         ce:43:bb:40:8c:7d:9f:a4:51:30:08:32:da:5c:01:de:d0:2e:
         06:93:f2:f9:b7:d2:64:2e:50:d7:fa:a9:ee:c4:55:a0:03:9e:
         37:90:db:6e:04:b4:12:7b:e1:c3:ad:d7:47:01:95:69:d8:9c:
         96:3e:b8:4e:0d:60:bb:e4:7c:19:28:02:99:1b:2e:f7:2d:5b:
         2e:89:c9:47:da:4a:21:12:e9:d8:49:72:fe:9a:91:fd:97:94:
         fc:f1:70:07:0d:2d:13:79:d6:43:9f:39:57:82:ec:f6:c8:de:
         9f:95:e6:13:c8:b4:ea:a9:ef:2d:55:24:57:f6:f2:35:4d:a0:
         98:db:c6:fb:62:44:11:35:20:6e:3d:7b:bd:00:b3:5d:6f:e3:
         ff:2c:4d:c9:8a:27:07:53:3e:55:b8:f8:e9:38:d6:c5:07:7e:
         83:41:1f:b5:d2:95:93:29:66:e9:21:bd:58:07:f6:25:c2:d3:
         27:3f:1f:99:4f:de:dc:21:f8:72:cf:12:c4:4e:80:a9:59:04:
         51:cc:e8:12:3e:d0:dd:2f:64:45:35:99:9d:a8:9a:e5:15:f3:
         88:b3:bf:ad
-----BEGIN CERTIFICATE-----
MIIEFjCCAv6gAwIBAgIEEAAA0zANBgkqhkiG9w0BAQUFADBEMQswCQYDVQQGEwJE
RTEPMA0GA1UECAwGSGVzc2VuMRQwEgYDVQQKDAtwcml2YWN5aWRlYTEOMAwGA1UE
AwwFQ0EwMDEwHhcNMTYwNDI5MDg0NjMwWhcNMTcwNDI5MDg0NjMwWjBEMQ4wDAYD
VQQLEwVsb2NhbDEOMAwGA1UEAxMFY29ybnkxIjAgBgkqhkiG9w0BCQEWE2Nvcm55
QGNvcm5lbGludXguZGUwggEiMA0GCSqGSIb3DQEBAQUAA4IBDwAwggEKAoIBAQCk
rMrLQ0HcyoS2nlPSGNmUywwHeeVUJtGEswAJAEvBxMzEmn1MobHRkdzVZfqxtlnu
m4i2iP9sxX3e/Efng2z+COs7SvEADWDv74sTDYASNrwVOnxfUvCHT8o21wleEGGc
g0ZU8Jz8osjjwf+VfuOfzSTDsBz/ykHei6yvqY5q1rWhZ1omQeFb7kgqcHX9VRmq
N+wPB7erJeFelp3mBHg6aWSzuUsgmz59wHHvHujRM1N4mEy3r0m1wYEW6MQqBRxW
D/JkJbdvq0FIdmautpk6veSrAluQQ+hWD7hYgvarI25XEVdrmRkjorBSLIUp+6iy
T01bi/YKU+lY0UcZlYRJAgMBAAGjggEOMIIBCjALBgNVHQ8EBAMCBaAwCQYDVR0T
BAIwADARBglghkgBhvhCAQEEBAMCBkAwMwYJYIZIAYb4QgENBCYWJE9wZW5TU0wg
R2VuZXJhdGVkIFNlcnZlciBDZXJ0aWZpY2F0ZTAdBgNVHQ4EFgQUF6qETRhVBToQ
t10oP++dDHDS4CswdAYDVR0jBG0wa4AU9KfAzJFGr2TzkfIn+Miyb4qHMnOhSKRG
MEQxCzAJBgNVBAYTAkRFMQ8wDQYDVQQIDAZIZXNzZW4xFDASBgNVBAoMC3ByaXZh
Y3lpZGVhMQ4wDAYDVQQDDAVDQTAwMYIJAPvI66yDzRIHMBMGA1UdJQQMMAoGCCsG
AQUFBwMBMA0GCSqGSIb3DQEBBQUAA4IBAQAzvWoyB/O2JhkOpMyMqcCtmXZxMerX
6HSCgYyhM5g6pFQA3BfOQ7tAjH2fpFEwCDLaXAHe0C4Gk/L5t9JkLlDX+qnuxFWg
A543kNtuBLQSe+HDrddHAZVp2JyWPrhODWC75HwZKAKZGy73LVsuiclH2kohEunY
SXL+mpH9l5T88XAHDS0TedZDnzlXguz2yN6fleYTyLTqqe8tVSRX9vI1TaCY28b7
YkQRNSBuPXu9ALNdb+P/LE3JiicHUz5VuPjpONbFB36DQR+10pWTKWbpIb1YB/Yl
wtMnPx+ZT97cIfhyzxLEToCpWQRRzOgSPtDdL2RFNZmdqJrlFfOIs7+t
-----END CERTIFICATE-----
