Certificate:
    Data:
        Version: 3 (0x2)
        Serial Number: 268435664 (0x100000d0)
    Signature Algorithm: sha1WithRSAEncryption
        Issuer: C=DE, ST=Hessen, O=privacyidea, CN=CA001
        Validity
            Not Before: Apr 29 08:42:29 2016 GMT
            Not After : Apr 29 08:42:29 2017 GMT
        Subject: OU=local, CN=corny/emailAddress=corny@cornelinux.de
        Subject Public Key Info:
            Public Key Algorithm: rsaEncryption
                Public-Key: (2048 bit)
                Modulus:
                    00:dc:26:7f:2f:c4:6d:45:ba:db:92:db:d4:df:9c:
                    67:a5:16:14:1e:86:5d:93:46:b5:36:76:d4:0d:5b:
                    38:f2:f5:25:14:44:dc:94:4f:3b:50:88:05:df:23:
                    af:b9:20:aa:6f:f4:53:66:7a:46:eb:aa:63:3a:b4:
                    c2:8d:01:91:79:1e:fe:15:72:06:65:b6:03:79:00:
                    69:b6:9f:6f:6d:b3:04:2a:e1:e5:cf:9f:4f:98:bc:
                    af:23:52:cc:a7:54:4b:8a:95:98:aa:da:ad:9d:56:
                    ad:37:4c:47:05:5d:f0:8d:5a:34:00:5b:76:2a:91:
                    68:14:9e:69:c4:89:3c:91:db:d9:04:c6:0f:c3:d9:
                    a8:b5:7f:71:46:42:22:59:5e:29:fa:e7:76:d2:72:
                    98:fe:55:0b:bf:f4:36:00:64:fb:db:9a:a0:22:0b:
                    f7:e3:85:0c:fa:c7:ca:43:36:3b:ad:5f:ba:b9:c0:
                    b7:27:94:1a:c2:9a:dd:5a:ad:95:e2:79:e1:a2:0a:
                    a8:85:d0:57:2a:21:aa:42:cf:09:8a:99:a3:39:10:
                    dd:06:bf:bd:17:05:06:48:18:1d:14:a8:7c:79:55:
                    46:c7:8b:00:a3:af:ad:01:08:85:18:8d:b4:8b:ee:
                    1b:9d:cc:f1:38:9c:3f:19:59:d8:29:86:92:37:5d:
                    bd:65
                Exponent: 65537 (0x10001)
        X509v3 extensions:
            X509v3 Key Usage: 
                Digital Signature, Key Encipherment
            X509v3 Basic Constraints: 
                CA:FALSE
            Netscape Cert Type: 
                SSL Server
            Netscape Comment: 
                OpenSSL Generated Server Certificate
            X509v3 Subject Key Identifier: 
                B8:FD:35:71:23:5B:82:31:3B:CF:08:9C:AB:51:DC:6B:4C:39:1E:F9
            X509v3 Authority Key Identifier: 
                keyid:F4:A7:C0:CC:91:46:AF:64:F3:91:F2:27:F8:C8:B2:6F:8A:87:32:73
                DirName:/C=DE/ST=Hessen/O=privacyidea/CN=CA001
                serial:FB:C8:EB:AC:83:CD:12:07

            X509v3 Extended Key Usage: 
                TLS Web Server Authentication
    Signature Algorithm: sha1WithRSAEncryption
         15:bb:b7:ee:ac:c7:92:de:13:41:63:d9:e6:f3:3c:f3:50:a8:
         5c:9a:9f:74:07:58:da:60:5b:c7:d9:00:88:28:14:58:cd:ed:
         2c:a6:c3:d5:92:69:e6:44:46:8e:fb:96:82:7c:08:4f:d1:dd:
         e6:0c:b7:76:19:8b:ac:3f:a6:32:b8:18:48:4b:1a:6b:ec:5a:
         7d:a8:e1:2a:62:a2:a1:8d:cc:57:d0:3b:f8:8f:ae:8c:8b:61:
         ce:aa:84:c5:12:b9:54:4c:07:56:c5:a8:3b:3e:a6:67:69:a2:
         0b:db:a6:6a:14:9d:37:ca:bd:02:63:d3:eb:b5:58:98:fa:8d:
         db:a5:54:33:cb:90:88:1e:f5:93:05:e1:48:27:8c:82:a3:17:
         89:17:29:01:24:54:18:ab:a6:bd:06:2c:54:a2:bc:c5:f1:00:
         de:97:cf:da:c9:b1:47:86:61:30:84:a2:5f:33:da:e2:eb:6a:
         13:f3:7e:d7:84:ec:53:c6:2f:60:19:52:0c:54:84:35:d3:ae:
         35:ff:d7:83:5d:e6:c4:14:16:fb:61:09:80:77:26:71:76:00:
         f0:97:c1:c2:17:af:df:db:c9:d0:31:b7:7b:f7:09:3a:8e:ad:
         8c:45:13:00:d2:94:b9:31:94:0c:10:74:55:4c:03:0a:7b:31:
         d2:a1:2d:b0
-----BEGIN CERTIFICATE-----
MIIEFjCCAv6gAwIBAgIEEAAA0DANBgkqhkiG9w0BAQUFADBEMQswCQYDVQQGEwJE
RTEPMA0GA1UECAwGSGVzc2VuMRQwEgYDVQQKDAtwcml2YWN5aWRlYTEOMAwGA1UE
AwwFQ0EwMDEwHhcNMTYwNDI5MDg0MjI5WhcNMTcwNDI5MDg0MjI5WjBEMQ4wDAYD
VQQLEwVsb2NhbDEOMAwGA1UEAxMFY29ybnkxIjAgBgkqhkiG9w0BCQEWE2Nvcm55
QGNvcm5lbGludXguZGUwggEiMA0GCSqGSIb3DQEBAQUAA4IBDwAwggEKAoIBAQDc
Jn8vxG1FutuS29TfnGelFhQehl2TRrU2dtQNWzjy9SUURNyUTztQiAXfI6+5IKpv
9FNmekbrqmM6tMKNAZF5Hv4VcgZltgN5AGm2n29tswQq4eXPn0+YvK8jUsynVEuK
lZiq2q2dVq03TEcFXfCNWjQAW3YqkWgUnmnEiTyR29kExg/D2ai1f3FGQiJZXin6
53bScpj+VQu/9DYAZPvbmqAiC/fjhQz6x8pDNjutX7q5wLcnlBrCmt1arZXieeGi
CqiF0FcqIapCzwmKmaM5EN0Gv70XBQZIGB0UqHx5VUbHiwCjr60BCIUYjbSL7hud
zPE4nD8ZWdgphpI3Xb1lAgMBAAGjggEOMIIBCjALBgNVHQ8EBAMCBaAwCQYDVR0T
BAIwADARBglghkgBhvhCAQEEBAMCBkAwMwYJYIZIAYb4QgENBCYWJE9wZW5TU0wg
R2VuZXJhdGVkIFNlcnZlciBDZXJ0aWZpY2F0ZTAdBgNVHQ4EFgQUuP01cSNbgjE7
zwicq1Hca0w5HvkwdAYDVR0jBG0wa4AU9KfAzJFGr2TzkfIn+Miyb4qHMnOhSKRG
MEQxCzAJBgNVBAYTAkRFMQ8wDQYDVQQIDAZIZXNzZW4xFDASBgNVBAoMC3ByaXZh
Y3lpZGVhMQ4wDAYDVQQDDAVDQTAwMYIJAPvI66yDzRIHMBMGA1UdJQQMMAoGCCsG
AQUFBwMBMA0GCSqGSIb3DQEBBQUAA4IBAQAVu7furMeS3hNBY9nm8zzzUKhcmp90
B1jaYFvH2QCIKBRYze0spsPVkmnmREaO+5aCfAhP0d3mDLd2GYusP6YyuBhISxpr
7Fp9qOEqYqKhjcxX0Dv4j66Mi2HOqoTFErlUTAdWxag7PqZnaaIL26ZqFJ03yr0C
Y9PrtViY+o3bpVQzy5CIHvWTBeFIJ4yCoxeJFykBJFQYq6a9BixUorzF8QDel8/a
ybFHhmEwhKJfM9ri62oT837XhOxTxi9gGVIMVIQ10641/9eDXebEFBb7YQmAdyZx
dgDwl8HCF6/f28nQMbd79wk6jq2MRRMA0pS5MZQMEHRVTAMKezHSoS2w
-----END CERTIFICATE-----
