Certificate:
    Data:
        Version: 3 (0x2)
        Serial Number: 268435676 (0x100000dc)
    Signature Algorithm: sha1WithRSAEncryption
        Issuer: C=DE, ST=Hessen, O=privacyidea, CN=CA001
        Validity
            Not Before: Apr 26 09:08:48 2016 GMT
            Not After : Apr 26 09:08:48 2017 GMT
        Subject: C=DE, ST=Hessen, O=privacyidea, CN=requester.localdomain
        Subject Public Key Info:
            Public Key Algorithm: rsaEncryption
                Public-Key: (2048 bit)
                Modulus:
                    00:cd:be:14:4f:fa:ce:01:3f:42:22:1b:1d:9c:af:
                    dd:92:d2:7f:db:6c:b7:3e:39:43:43:6b:13:03:f1:
                    05:f4:07:74:bc:76:69:28:0b:af:19:8e:d7:fc:e3:
                    cd:c6:58:f2:ca:7f:08:6d:53:fc:07:02:44:24:c6:
                    b4:34:4c:8c:04:fe:33:0e:40:e2:20:ba:02:73:5a:
                    f7:f5:4f:63:6e:cc:c6:b6:df:54:1d:37:39:7d:51:
                    36:26:5f:bd:dc:3f:a8:8b:6b:a2:ae:b6:9d:d6:21:
                    e7:df:41:b8:7a:28:2a:68:48:ca:a8:2d:ed:e1:e9:
                    46:5e:5a:72:6d:b4:84:38:87:91:fd:94:11:0b:28:
                    84:c6:c2:2f:2a:fb:01:f9:36:7a:09:75:d1:33:88:
                    3c:73:41:5b:c8:bf:94:89:70:a1:f0:c0:b9:2e:50:
                    53:1e:b1:17:64:69:f4:2d:81:e0:a9:0d:0e:32:e9:
                    ba:55:8a:85:f1:1b:6f:49:79:b4:7f:88:c3:0d:3e:
                    54:88:9b:3d:1f:38:8c:04:f3:ee:6a:63:2b:f5:c6:
                    db:b4:83:aa:c4:78:41:3a:7d:4b:e1:c8:3e:71:ca:
                    1b:61:59:ea:c6:c4:ca:32:5e:c9:e9:bf:12:29:e6:
                    c6:c3:63:fe:a0:55:da:7a:f1:60:98:4d:26:ed:fa:
                    70:2d
                Exponent: 65537 (0x10001)
        X509v3 extensions:
            X509v3 Key Usage: 
                Digital Signature, Key Encipherment
            X509v3 Basic Constraints: 
                CA:FALSE
            Netscape Cert Type: 
                SSL Server
            Netscape Comment: 
                OpenSSL Generated Server Certificate
            X509v3 Subject Key Identifier: 
                53:3F:ED:5D:09:07:B3:65:7B:AB:45:C9:24:5B:09:77:80:0A:96:ED
            X509v3 Authority Key Identifier: 
                keyid:F4:A7:C0:CC:91:46:AF:64:F3:91:F2:27:F8:C8:B2:6F:8A:87:32:73
                DirName:/C=DE/ST=Hessen/O=privacyidea/CN=CA001
                serial:FB:C8:EB:AC:83:CD:12:07

            X509v3 Extended Key Usage: 
                TLS Web Server Authentication
    Signature Algorithm: sha1WithRSAEncryption
         55:1f:04:79:8b:c2:61:2d:d7:1b:26:26:4c:de:10:d3:19:f1:
         81:c8:9b:5d:51:3a:f9:d6:5e:a7:43:a5:fa:f4:12:86:ab:6b:
         5f:84:63:6d:c7:16:cc:c5:6f:3e:5f:e4:ab:d1:44:a7:26:07:
         b1:9d:d6:4e:46:1b:11:45:51:2e:98:e6:9f:a6:fb:66:7e:37:
         e5:9d:a1:f8:95:c4:fe:ee:b6:3a:ea:db:23:13:2c:3a:ff:15:
         f5:b2:e5:79:5c:6b:fb:73:cf:29:e5:71:8d:90:32:04:78:30:
         99:fa:96:89:7c:1a:63:e7:ea:c6:e6:d7:4d:1a:d9:09:cf:b1:
         94:f2:1b:16:04:2f:b0:5e:02:28:ac:de:d0:56:2d:37:91:cc:
         28:77:80:55:2f:65:9c:99:95:d9:30:14:1e:42:bc:ef:9e:14:
         2e:6e:86:1a:05:4b:f2:27:ec:f7:34:9f:ab:e8:50:22:2c:b4:
         19:a8:0c:a6:d0:8f:77:23:80:d1:66:78:02:09:a6:cf:87:86:
         57:24:34:8a:60:74:80:2e:9c:df:15:3a:5a:22:f7:ab:19:72:
         ed:44:00:1c:d4:82:7e:7e:e2:d4:98:b8:f6:e5:30:8e:da:43:
         ae:b2:44:97:95:eb:20:bb:ef:8b:c6:20:d6:a2:40:2a:c6:57:
         2e:d1:1f:8d
-----BEGIN CERTIFICATE-----
MIIEJjCCAw6gAwIBAgIEEAAA3DANBgkqhkiG9w0BAQUFADBEMQswCQYDVQQGEwJE
RTEPMA0GA1UECAwGSGVzc2VuMRQwEgYDVQQKDAtwcml2YWN5aWRlYTEOMAwGA1UE
AwwFQ0EwMDEwHhcNMTYwNDI2MDkwODQ4WhcNMTcwNDI2MDkwODQ4WjBUMQswCQYD
VQQGEwJERTEPMA0GA1UECAwGSGVzc2VuMRQwEgYDVQQKDAtwcml2YWN5aWRlYTEe
MBwGA1UEAwwVcmVxdWVzdGVyLmxvY2FsZG9tYWluMIIBIjANBgkqhkiG9w0BAQEF
AAOCAQ8AMIIBCgKCAQEAzb4UT/rOAT9CIhsdnK/dktJ/22y3PjlDQ2sTA/EF9Ad0
vHZpKAuvGY7X/OPNxljyyn8IbVP8BwJEJMa0NEyMBP4zDkDiILoCc1r39U9jbszG
tt9UHTc5fVE2Jl+93D+oi2uirrad1iHn30G4eigqaEjKqC3t4elGXlpybbSEOIeR
/ZQRCyiExsIvKvsB+TZ6CXXRM4g8c0FbyL+UiXCh8MC5LlBTHrEXZGn0LYHgqQ0O
Mum6VYqF8RtvSXm0f4jDDT5UiJs9HziMBPPuamMr9cbbtIOqxHhBOn1L4cg+ccob
YVnqxsTKMl7J6b8SKebGw2P+oFXaevFgmE0m7fpwLQIDAQABo4IBDjCCAQowCwYD
VR0PBAQDAgWgMAkGA1UdEwQCMAAwEQYJYIZIAYb4QgEBBAQDAgZAMDMGCWCGSAGG
+EIBDQQmFiRPcGVuU1NMIEdlbmVyYXRlZCBTZXJ2ZXIgQ2VydGlmaWNhdGUwHQYD
VR0OBBYEFFM/7V0JB7Nle6tFySRbCXeACpbtMHQGA1UdIwRtMGuAFPSnwMyRRq9k
85HyJ/jIsm+KhzJzoUikRjBEMQswCQYDVQQGEwJERTEPMA0GA1UECAwGSGVzc2Vu
MRQwEgYDVQQKDAtwcml2YWN5aWRlYTEOMAwGA1UEAwwFQ0EwMDGCCQD7yOusg80S
BzATBgNVHSUEDDAKBggrBgEFBQcDATANBgkqhkiG9w0BAQUFAAOCAQEAVR8EeYvC
YS3XGyYmTN4Q0xnxgcibXVE6+dZep0Ol+vQShqtrX4RjbccWzMVvPl/kq9FEpyYH
sZ3WTkYbEUVRLpjmn6b7Zn435Z2h+JXE/u62OurbIxMsOv8V9bLleVxr+3PPKeVx
jZAyBHgwmfqWiXwaY+fqxubXTRrZCc+xlPIbFgQvsF4CKKze0FYtN5HMKHeAVS9l
nJmV2TAUHkK8754ULm6GGgVL8ifs9zSfq+hQIiy0GagMptCPdyOA0WZ4Agmmz4eG
VyQ0imB0gC6c3xU6WiL3qxly7UQAHNSCfn7i1Ji49uUwjtpDrrJEl5XrILvvi8Yg
1qJAKsZXLtEfjQ==
-----END CERTIFICATE-----
