Certificate:
    Data:
        Version: 3 (0x2)
        Serial Number: 268435659 (0x100000cb)
    Signature Algorithm: sha1WithRSAEncryption
        Issuer: C=DE, ST=Hessen, O=privacyidea, CN=CA001
        Validity
            Not Before: May  4 06:18:47 2016 GMT
            Not After : May  4 06:18:47 2017 GMT
        Subject: C=DE, ST=Hessen, O=privacyidea, CN=usercert
        Subject Public Key Info:
            Public Key Algorithm: rsaEncryption
                Public-Key: (2048 bit)
                Modulus:
                    00:dc:2f:d1:5f:29:97:d4:7c:c3:53:c8:30:bd:4b:
                    67:70:2c:24:6b:b8:5e:eb:21:7a:48:12:56:7c:81:
                    5c:48:75:b6:68:eb:f6:f2:98:4e:50:51:d1:7f:6c:
                    73:f3:0a:a7:ae:be:48:5e:e5:d6:e1:d9:2a:7c:32:
                    6e:4e:fd:08:f6:5a:54:49:23:73:c3:b9:07:18:d1:
                    ef:b3:ac:f8:8a:dc:94:96:a4:90:3a:8e:74:df:e6:
                    0d:37:1b:bd:5b:b7:25:1a:56:39:da:6f:91:aa:5e:
                    1c:74:f3:f9:7c:14:01:83:12:65:76:c7:bb:fe:36:
                    5b:95:e9:72:65:83:ed:3e:98:30:71:fa:87:dd:a3:
                    36:5a:30:03:2e:26:e0:61:d1:bf:02:3f:b6:06:1f:
                    4a:89:28:1c:5c:a2:ff:4e:be:94:e6:8c:e0:da:82:
                    f1:9d:29:32:48:30:73:b4:04:f6:42:1e:be:f7:e2:
                    32:32:27:3c:9d:89:2f:70:3e:85:9a:6f:5c:c5:09:
                    c0:8c:32:2f:72:22:c9:d2:95:1f:b6:ac:72:60:72:
                    b7:82:4d:6b:ce:5b:e3:00:d0:d2:2f:58:c6:e0:10:
                    e5:51:ca:4d:3b:2e:e6:7e:ab:84:d6:56:f1:93:35:
                    a0:93:64:26:81:75:2f:91:b5:16:06:38:0b:db:cc:
                    2d:07
                Exponent: 65537 (0x10001)
        X509v3 extensions:
            X509v3 Key Usage: 
                Digital Signature, Key Encipherment
            X509v3 Basic Constraints: 
                CA:FALSE
            Netscape Cert Type: 
                SSL Server
            Netscape Comment: 
                OpenSSL Generated Server Certificate
            X509v3 Subject Key Identifier: 
                FC:14:D1:F0:4B:8D:00:90:F2:F5:B8:71:9E:4E:97:C3:92:54:AD:0B
            X509v3 Authority Key Identifier: 
                keyid:F4:A7:C0:CC:91:46:AF:64:F3:91:F2:27:F8:C8:B2:6F:8A:87:32:73
                DirName:/C=DE/ST=Hessen/O=privacyidea/CN=CA001
                serial:FB:C8:EB:AC:83:CD:12:07

            X509v3 Extended Key Usage: 
                TLS Web Server Authentication
    Signature Algorithm: sha1WithRSAEncryption
         a3:41:a3:cb:06:96:af:12:61:16:b9:59:b8:ed:d6:1b:d6:df:
         6d:39:59:07:f8:60:c3:9e:c0:98:bb:1e:4b:c7:04:05:97:f1:
         39:55:12:9e:07:9c:da:63:22:b9:07:4e:21:a1:c8:c1:f4:be:
         05:12:00:02:27:8a:3b:83:df:0c:17:51:1f:3c:e3:62:05:11:
         db:8f:c3:c3:53:8c:0c:a0:f5:2e:09:98:6d:f0:a9:87:75:c6:
         a0:ae:63:62:cb:68:eb:90:62:5d:56:39:e8:b7:ed:8c:e5:86:
         c6:4f:71:6f:cb:8a:44:95:36:79:4a:bb:03:c5:ad:07:35:a8:
         16:60:fe:ae:0c:ab:ad:19:0d:9a:9e:87:c6:cf:90:f3:5e:8f:
         83:17:f7:ab:d5:a5:fd:8f:82:47:c1:ff:d5:cd:28:dd:5e:b7:
         fb:0b:5d:a8:bc:cb:d3:c7:b2:2f:57:5a:11:09:ad:8d:e5:f9:
         7b:a7:37:a5:dd:bf:36:fc:45:82:f4:54:7b:b0:f7:e4:0d:3d:
         b3:59:9c:4f:de:2b:41:91:a9:56:36:14:9c:9a:73:b3:5e:1c:
         1b:f9:36:3d:c7:41:aa:e5:3b:51:79:b3:6d:e4:08:40:e5:87:
         bd:f7:e2:e8:0e:70:78:62:02:a1:07:98:9d:4b:35:4d:3e:75:
         ff:b2:23:6c
-----BEGIN CERTIFICATE-----
MIIEGTCCAwGgAwIBAgIEEAAAyzANBgkqhkiG9w0BAQUFADBEMQswCQYDVQQGEwJE
RTEPMA0GA1UECAwGSGVzc2VuMRQwEgYDVQQKDAtwcml2YWN5aWRlYTEOMAwGA1UE
AwwFQ0EwMDEwHhcNMTYwNTA0MDYxODQ3WhcNMTcwNTA0MDYxODQ3WjBHMQswCQYD
VQQGEwJERTEPMA0GA1UECAwGSGVzc2VuMRQwEgYDVQQKDAtwcml2YWN5aWRlYTER
MA8GA1UEAwwIdXNlcmNlcnQwggEiMA0GCSqGSIb3DQEBAQUAA4IBDwAwggEKAoIB
AQDcL9FfKZfUfMNTyDC9S2dwLCRruF7rIXpIElZ8gVxIdbZo6/bymE5QUdF/bHPz
Cqeuvkhe5dbh2Sp8Mm5O/Qj2WlRJI3PDuQcY0e+zrPiK3JSWpJA6jnTf5g03G71b
tyUaVjnab5GqXhx08/l8FAGDEmV2x7v+NluV6XJlg+0+mDBx+ofdozZaMAMuJuBh
0b8CP7YGH0qJKBxcov9OvpTmjODagvGdKTJIMHO0BPZCHr734jIyJzydiS9wPoWa
b1zFCcCMMi9yIsnSlR+2rHJgcreCTWvOW+MA0NIvWMbgEOVRyk07LuZ+q4TWVvGT
NaCTZCaBdS+RtRYGOAvbzC0HAgMBAAGjggEOMIIBCjALBgNVHQ8EBAMCBaAwCQYD
VR0TBAIwADARBglghkgBhvhCAQEEBAMCBkAwMwYJYIZIAYb4QgENBCYWJE9wZW5T
U0wgR2VuZXJhdGVkIFNlcnZlciBDZXJ0aWZpY2F0ZTAdBgNVHQ4EFgQU/BTR8EuN
AJDy9bhxnk6Xw5JUrQswdAYDVR0jBG0wa4AU9KfAzJFGr2TzkfIn+Miyb4qHMnOh
SKRGMEQxCzAJBgNVBAYTAkRFMQ8wDQYDVQQIDAZIZXNzZW4xFDASBgNVBAoMC3By
aXZhY3lpZGVhMQ4wDAYDVQQDDAVDQTAwMYIJAPvI66yDzRIHMBMGA1UdJQQMMAoG
CCsGAQUFBwMBMA0GCSqGSIb3DQEBBQUAA4IBAQCjQaPLBpavEmEWuVm47dYb1t9t
OVkH+GDDnsCYux5LxwQFl/E5VRKeB5zaYyK5B04hocjB9L4FEgACJ4o7g98MF1Ef
PONiBRHbj8PDU4wMoPUuCZht8KmHdcagrmNiy2jrkGJdVjnot+2M5YbGT3Fvy4pE
lTZ5SrsDxa0HNagWYP6uDKutGQ2anofGz5DzXo+DF/er1aX9j4JHwf/VzSjdXrf7
C12ovMvTx7IvV1oRCa2N5fl7pzel3b82/EWC9FR7sPfkDT2zWZxP3itBkalWNhSc
mnOzXhwb+TY9x0Gq5TtRebNt5AhA5Ye99+LoDnB4YgKhB5idSzVNPnX/siNs
-----END CERTIFICATE-----
