Certificate:
    Data:
        Version: 3 (0x2)
        Serial Number: 268435661 (0x100000cd)
    Signature Algorithm: sha1WithRSAEncryption
        Issuer: C=DE, ST=Hessen, O=privacyidea, CN=CA001
        Validity
            Not Before: May  4 06:21:22 2016 GMT
            Not After : May  4 06:21:22 2017 GMT
        Subject: C=DE, ST=Hessen, O=privacyidea, CN=requester.localdomain
        Subject Public Key Info:
            Public Key Algorithm: rsaEncryption
                Public-Key: (2048 bit)
                Modulus:
                    00:cd:be:14:4f:fa:ce:01:3f:42:22:1b:1d:9c:af:
                    dd:92:d2:7f:db:6c:b7:3e:39:43:43:6b:13:03:f1:
                    05:f4:07:74:bc:76:69:28:0b:af:19:8e:d7:fc:e3:
                    cd:c6:58:f2:ca:7f:08:6d:53:fc:07:02:44:24:c6:
                    b4:34:4c:8c:04:fe:33:0e:40:e2:20:ba:02:73:5a:
                    f7:f5:4f:63:6e:cc:c6:b6:df:54:1d:37:39:7d:51:
                    36:26:5f:bd:dc:3f:a8:8b:6b:a2:ae:b6:9d:d6:21:
                    e7:df:41:b8:7a:28:2a:68:48:ca:a8:2d:ed:e1:e9:
                    46:5e:5a:72:6d:b4:84:38:87:91:fd:94:11:0b:28:
                    84:c6:c2:2f:2a:fb:01:f9:36:7a:09:75:d1:33:88:
                    3c:73:41:5b:c8:bf:94:89:70:a1:f0:c0:b9:2e:50:
                    53:1e:b1:17:64:69:f4:2d:81:e0:a9:0d:0e:32:e9:
                    ba:55:8a:85:f1:1b:6f:49:79:b4:7f:88:c3:0d:3e:
                    54:88:9b:3d:1f:38:8c:04:f3:ee:6a:63:2b:f5:c6:
                    db:b4:83:aa:c4:78:41:3a:7d:4b:e1:c8:3e:71:ca:
                    1b:61:59:ea:c6:c4:ca:32:5e:c9:e9:bf:12:29:e6:
                    c6:c3:63:fe:a0:55:da:7a:f1:60:98:4d:26:ed:fa:
                    70:2d
                Exponent: 65537 (0x10001)
        X509v3 extensions:
            X509v3 Key Usage: 
                Digital Signature, Key Encipherment
            X509v3 Basic Constraints: 
                CA:FALSE
            Netscape Cert Type: 
                SSL Server
            Netscape Comment: 
                OpenSSL Generated Server Certificate
            X509v3 Subject Key Identifier: 
                53:3F:ED:5D:09:07:B3:65:7B:AB:45:C9:24:5B:09:77:80:0A:96:ED
            X509v3 Authority Key Identifier: 
                keyid:F4:A7:C0:CC:91:46:AF:64:F3:91:F2:27:F8:C8:B2:6F:8A:87:32:73
                DirName:/C=DE/ST=Hessen/O=privacyidea/CN=CA001
                serial:FB:C8:EB:AC:83:CD:12:07

            X509v3 Extended Key Usage: 
                TLS Web Server Authentication
    Signature Algorithm: sha1WithRSAEncryption
         93:fa:dd:98:b3:63:7c:a5:35:46:0a:61:dc:eb:bf:44:33:ff:
         ee:76:4d:58:e1:75:8d:61:bf:35:e1:fc:d6:d4:4b:7e:be:64:
         0a:4d:d5:e2:10:12:e8:76:a2:ef:e3:d8:14:fb:6e:ab:5e:11:
         d7:22:92:d7:ab:32:c4:40:e0:28:e7:a8:92:7d:78:ff:f9:8b:
         0c:70:82:59:a8:01:54:67:70:a6:5f:11:c0:d3:2d:b8:ea:79:
         11:a2:50:c1:70:cf:9a:d9:72:5b:74:6a:f9:b9:3b:5c:e4:d5:
         ab:98:2b:5b:80:1b:d4:6b:69:f2:2a:27:1c:70:7a:73:ea:23:
         a8:51:47:ce:3d:f4:3d:73:56:8e:a5:97:b4:c0:dd:5e:14:e0:
         60:f8:40:c4:04:fd:40:30:a3:14:87:11:35:f2:bd:a3:48:96:
         0a:ad:ba:a0:a9:96:4d:61:fb:35:c4:00:1c:1a:9e:0b:6d:d9:
         1a:da:4e:10:53:3d:b8:e8:8b:74:38:54:b2:f3:28:91:a0:67:
         65:7c:d3:e6:3f:ae:de:fc:e3:bd:d0:1a:62:20:bb:ca:b1:a8:
         09:c4:28:71:29:de:d4:00:95:cd:7d:29:4c:42:4a:9f:8b:9f:
         18:b9:28:90:3a:e1:40:4f:05:84:53:0d:c8:21:8d:1c:81:51:
         6c:0d:ed:67
-----BEGIN CERTIFICATE-----
MIIEJjCCAw6gAwIBAgIEEAAAzTANBgkqhkiG9w0BAQUFADBEMQswCQYDVQQGEwJE
RTEPMA0GA1UECAwGSGVzc2VuMRQwEgYDVQQKDAtwcml2YWN5aWRlYTEOMAwGA1UE
AwwFQ0EwMDEwHhcNMTYwNTA0MDYyMTIyWhcNMTcwNTA0MDYyMTIyWjBUMQswCQYD
VQQGEwJERTEPMA0GA1UECAwGSGVzc2VuMRQwEgYDVQQKDAtwcml2YWN5aWRlYTEe
MBwGA1UEAwwVcmVxdWVzdGVyLmxvY2FsZG9tYWluMIIBIjANBgkqhkiG9w0BAQEF
AAOCAQ8AMIIBCgKCAQEAzb4UT/rOAT9CIhsdnK/dktJ/22y3PjlDQ2sTA/EF9Ad0
vHZpKAuvGY7X/OPNxljyyn8IbVP8BwJEJMa0NEyMBP4zDkDiILoCc1r39U9jbszG
tt9UHTc5fVE2Jl+93D+oi2uirrad1iHn30G4eigqaEjKqC3t4elGXlpybbSEOIeR
/ZQRCyiExsIvKvsB+TZ6CXXRM4g8c0FbyL+UiXCh8MC5LlBTHrEXZGn0LYHgqQ0O
Mum6VYqF8RtvSXm0f4jDDT5UiJs9HziMBPPuamMr9cbbtIOqxHhBOn1L4cg+ccob
YVnqxsTKMl7J6b8SKebGw2P+oFXaevFgmE0m7fpwLQIDAQABo4IBDjCCAQowCwYD
VR0PBAQDAgWgMAkGA1UdEwQCMAAwEQYJYIZIAYb4QgEBBAQDAgZAMDMGCWCGSAGG
+EIBDQQmFiRPcGVuU1NMIEdlbmVyYXRlZCBTZXJ2ZXIgQ2VydGlmaWNhdGUwHQYD
VR0OBBYEFFM/7V0JB7Nle6tFySRbCXeACpbtMHQGA1UdIwRtMGuAFPSnwMyRRq9k
85HyJ/jIsm+KhzJzoUikRjBEMQswCQYDVQQGEwJERTEPMA0GA1UECAwGSGVzc2Vu
MRQwEgYDVQQKDAtwcml2YWN5aWRlYTEOMAwGA1UEAwwFQ0EwMDGCCQD7yOusg80S
BzATBgNVHSUEDDAKBggrBgEFBQcDATANBgkqhkiG9w0BAQUFAAOCAQEAk/rdmLNj
fKU1Rgph3Ou/RDP/7nZNWOF1jWG/NeH81tRLfr5kCk3V4hAS6Hai7+PYFPtuq14R
1yKS16syxEDgKOeokn14//mLDHCCWagBVGdwpl8RwNMtuOp5EaJQwXDPmtlyW3Rq
+bk7XOTVq5grW4Ab1Gtp8ionHHB6c+ojqFFHzj30PXNWjqWXtMDdXhTgYPhAxAT9
QDCjFIcRNfK9o0iWCq26oKmWTWH7NcQAHBqeC23ZGtpOEFM9uOiLdDhUsvMokaBn
ZXzT5j+u3vzjvdAaYiC7yrGoCcQocSne1ACVzX0pTEJKn4ufGLkokDrhQE8FhFMN
yCGNHIFRbA3tZw==
-----END CERTIFICATE-----
