(dp0
S'totalTime'
p1
F1461816857.500079
sS'setrecordTime'
p2
F0.00025200843811035156
sS'saveTime'
p3
F0.15976691246032715
sS'connectTime'
p4
F0.0023009777069091797
sS'gatherTime'
p5
F0.0025320053100585938
sS'runTime'
p6
F0.4465310573577881
sS'initialTime'
p7
F1.0013580322265625e-05
sS'createTime'
p8
F0.0027849674224853516
s.