Certificate:
    Data:
        Version: 3 (0x2)
        Serial Number: 268435668 (0x100000d4)
    Signature Algorithm: sha1WithRSAEncryption
        Issuer: C=DE, ST=Hessen, O=privacyidea, CN=CA001
        Validity
            Not Before: May  9 19:31:17 2016 GMT
            Not After : May  9 19:31:17 2017 GMT
        Subject: OU=realm1, CN=cornelius/emailAddress=user@localhost.localdomain
        Subject Public Key Info:
            Public Key Algorithm: rsaEncryption
                Public-Key: (2048 bit)
                Modulus:
                    00:b7:58:20:af:3c:e7:02:ff:d5:8f:ea:a3:0a:81:
                    a3:f8:4f:9c:f5:de:d7:fc:e6:34:0f:70:c3:4b:08:
                    0d:b1:d4:66:e6:b7:58:ee:c1:7f:57:9c:d7:5f:a8:
                    1e:10:83:f9:35:31:b4:be:8b:e2:a3:46:9a:fc:b2:
                    d4:74:f5:84:93:a0:15:2c:b8:c3:4a:59:8f:3d:ca:
                    6e:ba:d3:67:2d:c9:56:1b:fa:02:55:7d:16:ab:44:
                    4b:9c:bb:05:c7:31:73:16:3d:3f:b7:05:36:a1:58:
                    36:12:11:d8:29:94:2c:01:35:8b:be:17:7e:2d:c9:
                    26:b0:56:50:31:e7:9a:3a:c4:76:7e:47:00:fb:7c:
                    aa:9d:8b:10:74:e5:8f:a0:76:f8:db:9b:52:5a:77:
                    c3:de:d0:56:76:36:56:76:52:62:3d:02:2f:f3:b7:
                    b8:47:bb:93:07:1e:14:b7:af:62:bf:09:b8:1e:17:
                    56:2a:a9:05:9e:7b:cc:e4:97:55:01:63:24:a2:99:
                    c3:dc:2d:5f:21:48:24:90:63:ee:56:01:02:2f:42:
                    b0:15:f0:7e:51:9b:f4:6a:07:c1:d9:0d:83:6d:43:
                    f4:8f:09:e7:f7:2c:0c:5b:cd:e0:ec:ce:59:cd:1e:
                    98:3f:23:7b:f3:58:1d:6b:e9:fc:14:b5:7e:ea:5c:
                    43:eb
                Exponent: 65537 (0x10001)
        X509v3 extensions:
            X509v3 Key Usage: 
                Digital Signature, Key Encipherment
            X509v3 Basic Constraints: 
                CA:FALSE
            Netscape Cert Type: 
                SSL Server
            Netscape Comment: 
                OpenSSL Generated Server Certificate
            X509v3 Subject Key Identifier: 
                9D:C6:1E:A8:85:F1:83:C5:15:9B:52:AD:AC:0C:2F:7F:7D:6C:4C:A4
            X509v3 Authority Key Identifier: 
                keyid:F4:A7:C0:CC:91:46:AF:64:F3:91:F2:27:F8:C8:B2:6F:8A:87:32:73
                DirName:/C=DE/ST=Hessen/O=privacyidea/CN=CA001
                serial:FB:C8:EB:AC:83:CD:12:07

            X509v3 Extended Key Usage: 
                TLS Web Server Authentication
    Signature Algorithm: sha1WithRSAEncryption
         b4:eb:03:7a:61:13:fd:1f:b4:64:f1:14:fd:cf:b6:2b:29:f0:
         05:ec:c7:07:0f:e3:1b:6b:98:59:91:e5:90:5a:54:0a:ae:a6:
         39:27:47:f6:10:ff:b7:14:ce:28:17:d1:c9:8f:ea:53:35:15:
         73:64:55:30:27:c1:0d:8a:92:2f:f0:44:e3:54:23:e9:b2:2e:
         d0:f4:01:d0:a2:76:c6:8b:c9:91:8d:76:fc:27:19:64:78:f2:
         65:07:54:25:6d:a2:95:09:f5:8c:99:8f:8a:08:0e:e2:b4:08:
         16:61:38:38:cc:10:ef:6f:ad:74:66:22:5d:91:f3:49:c3:bf:
         2e:dd:b9:b8:05:90:81:b1:5b:19:64:ed:6e:6c:30:c7:7a:86:
         e0:fa:f4:18:23:87:5b:4c:28:f1:b6:bb:e5:9b:16:c4:26:6e:
         2a:d9:2c:2d:03:cf:c6:32:7e:f7:b1:65:c0:e8:6b:00:3f:a1:
         a9:24:71:31:53:37:db:1a:d2:a4:aa:5d:23:d9:37:92:9c:c9:
         0e:09:24:0b:56:75:8c:e9:94:7d:73:e6:23:2a:21:50:55:96:
         3c:a6:01:5d:32:76:72:da:cf:34:87:43:87:00:e6:20:51:ac:
         36:d7:e3:70:ef:d4:4a:e1:b1:f3:66:0c:5b:94:71:b9:2c:50:
         6e:99:8a:32
-----BEGIN CERTIFICATE-----
MIIEIjCCAwqgAwIBAgIEEAAA1DANBgkqhkiG9w0BAQUFADBEMQswCQYDVQQGEwJE
RTEPMA0GA1UECAwGSGVzc2VuMRQwEgYDVQQKDAtwcml2YWN5aWRlYTEOMAwGA1UE
AwwFQ0EwMDEwHhcNMTYwNTA5MTkzMTE3WhcNMTcwNTA5MTkzMTE3WjBQMQ8wDQYD
VQQLEwZyZWFsbTExEjAQBgNVBAMTCWNvcm5lbGl1czEpMCcGCSqGSIb3DQEJARYa
dXNlckBsb2NhbGhvc3QubG9jYWxkb21haW4wggEiMA0GCSqGSIb3DQEBAQUAA4IB
DwAwggEKAoIBAQC3WCCvPOcC/9WP6qMKgaP4T5z13tf85jQPcMNLCA2x1Gbmt1ju
wX9XnNdfqB4Qg/k1MbS+i+KjRpr8stR09YSToBUsuMNKWY89ym6602ctyVYb+gJV
fRarREucuwXHMXMWPT+3BTahWDYSEdgplCwBNYu+F34tySawVlAx55o6xHZ+RwD7
fKqdixB05Y+gdvjbm1Jad8Pe0FZ2NlZ2UmI9Ai/zt7hHu5MHHhS3r2K/CbgeF1Yq
qQWee8zkl1UBYySimcPcLV8hSCSQY+5WAQIvQrAV8H5Rm/RqB8HZDYNtQ/SPCef3
LAxbzeDszlnNHpg/I3vzWB1r6fwUtX7qXEPrAgMBAAGjggEOMIIBCjALBgNVHQ8E
BAMCBaAwCQYDVR0TBAIwADARBglghkgBhvhCAQEEBAMCBkAwMwYJYIZIAYb4QgEN
BCYWJE9wZW5TU0wgR2VuZXJhdGVkIFNlcnZlciBDZXJ0aWZpY2F0ZTAdBgNVHQ4E
FgQUncYeqIXxg8UVm1KtrAwvf31sTKQwdAYDVR0jBG0wa4AU9KfAzJFGr2TzkfIn
+Miyb4qHMnOhSKRGMEQxCzAJBgNVBAYTAkRFMQ8wDQYDVQQIDAZIZXNzZW4xFDAS
BgNVBAoMC3ByaXZhY3lpZGVhMQ4wDAYDVQQDDAVDQTAwMYIJAPvI66yDzRIHMBMG
A1UdJQQMMAoGCCsGAQUFBwMBMA0GCSqGSIb3DQEBBQUAA4IBAQC06wN6YRP9H7Rk
8RT9z7YrKfAF7McHD+Mba5hZkeWQWlQKrqY5J0f2EP+3FM4oF9HJj+pTNRVzZFUw
J8ENipIv8ETjVCPpsi7Q9AHQonbGi8mRjXb8JxlkePJlB1QlbaKVCfWMmY+KCA7i
tAgWYTg4zBDvb610ZiJdkfNJw78u3bm4BZCBsVsZZO1ubDDHeobg+vQYI4dbTCjx
trvlmxbEJm4q2SwtA8/GMn73sWXA6GsAP6GpJHExUzfbGtKkql0j2TeSnMkOCSQL
VnWM6ZR9c+YjKiFQVZY8pgFdMnZy2s80h0OHAOYgUaw21+Nw79RK4bHzZgxblHG5
LFBumYoy
-----END CERTIFICATE-----
