Certificate:
    Data:
        Version: 3 (0x2)
        Serial Number: 268435670 (0x100000d6)
    Signature Algorithm: sha1WithRSAEncryption
        Issuer: C=DE, ST=Hessen, O=privacyidea, CN=CA001
        Validity
            Not Before: May  7 11:22:48 2016 GMT
            Not After : May  7 11:22:48 2017 GMT
        Subject: CN=selfservice,CN=user,O=realm1/emailAddress=meine
        Subject Public Key Info:
            Public Key Algorithm: rsaEncryption
                Public-Key: (2048 bit)
                Modulus:
                    00:cf:3c:d4:33:0e:12:c4:e6:da:cd:b6:56:a1:1c:
                    26:bb:26:1c:8a:4a:73:a8:58:8a:b6:1e:b3:8b:99:
                    d2:1d:07:c2:92:89:79:c0:69:d8:c8:df:28:61:98:
                    1e:b3:fe:ae:2b:bd:78:a9:f7:6e:47:dc:a3:a0:16:
                    8c:85:02:c1:4e:92:fd:72:6e:f0:c8:03:29:9b:b8:
                    00:6e:c0:83:95:c8:34:20:36:9c:b3:e5:e4:e6:76:
                    73:a3:1a:ad:40:96:e0:53:54:00:ec:76:79:9a:c6:
                    0d:7e:b6:bd:29:ec:83:f3:cb:89:a4:cb:6c:00:ba:
                    0c:c5:78:0f:ff:69:b8:94:f4:04:70:43:3f:d8:9e:
                    d7:a7:fb:5d:ce:75:8e:da:e7:c4:07:b1:9d:de:6f:
                    88:4b:b6:4d:9a:cf:f9:bc:fa:9f:cd:32:6d:f6:3a:
                    0b:0d:23:42:78:ec:97:42:bf:0e:4d:60:56:e1:d3:
                    02:f2:19:cb:84:57:90:e5:70:a1:a2:83:35:86:e2:
                    da:86:9f:f9:8a:c4:79:b3:52:28:da:cb:bb:34:ca:
                    d3:da:91:4a:cf:8d:76:a2:b2:6b:9b:f9:96:fd:09:
                    2a:da:11:23:4d:f0:cb:d6:b2:b1:0e:12:6c:9a:19:
                    65:98:87:ca:e4:ee:24:ce:44:ac:90:8f:9d:1b:c5:
                    2a:9d
                Exponent: 65537 (0x10001)
        X509v3 extensions:
            X509v3 Key Usage: 
                Digital Signature, Key Encipherment
            X509v3 Basic Constraints: 
                CA:FALSE
            Netscape Cert Type: 
                SSL Server
            Netscape Comment: 
                OpenSSL Generated Server Certificate
            X509v3 Subject Key Identifier: 
                4D:07:90:AD:FF:1D:0D:E7:1A:DD:D6:2E:FA:BA:34:CB:AA:1F:24:C6
            X509v3 Authority Key Identifier: 
                keyid:F4:A7:C0:CC:91:46:AF:64:F3:91:F2:27:F8:C8:B2:6F:8A:87:32:73
                DirName:/C=DE/ST=Hessen/O=privacyidea/CN=CA001
                serial:FB:C8:EB:AC:83:CD:12:07

            X509v3 Extended Key Usage: 
                TLS Web Server Authentication
    Signature Algorithm: sha1WithRSAEncryption
         25:0a:8d:6c:99:c5:0d:a5:ab:ff:74:67:79:e5:b6:68:ad:86:
         f1:4a:aa:1b:67:47:05:29:aa:0c:fa:3d:57:94:32:16:54:4d:
         ee:4e:e1:cd:b2:7a:3d:37:c9:22:48:73:68:8e:fc:10:07:5c:
         3b:32:4a:a9:7c:55:c8:ce:01:99:16:69:c5:f2:4b:7e:b3:22:
         b1:b8:97:87:6f:84:9c:1d:d0:50:1e:9c:21:d7:6f:fc:a3:17:
         db:91:f1:91:60:08:fb:24:ee:3c:b7:33:df:5d:41:7d:d1:58:
         cc:9f:d2:18:c2:1c:2f:c2:0e:c1:b7:6c:6f:29:82:fe:87:3a:
         0b:19:39:b3:37:94:78:3a:1d:03:85:f5:13:8f:5f:1d:00:77:
         37:96:a3:ab:79:90:de:a5:d9:a8:62:54:22:93:e0:a0:69:65:
         bd:29:a0:cc:f3:c0:d9:0c:71:8b:91:8b:0d:46:cf:17:64:cf:
         7d:c0:1c:70:55:50:08:50:71:ed:dd:e2:b8:a5:33:03:25:e9:
         32:aa:b6:b8:ab:68:5b:a6:23:a8:1f:78:8b:99:fa:31:38:00:
         7b:cb:f6:71:46:1b:63:7b:b4:e7:3e:6d:c6:d5:35:9f:58:71:
         9e:34:0b:7e:c0:9f:95:cc:60:52:11:0e:9e:de:64:0b:62:db:
         5e:84:ad:19
-----BEGIN CERTIFICATE-----
MIIEDzCCAvegAwIBAgIEEAAA1jANBgkqhkiG9w0BAQUFADBEMQswCQYDVQQGEwJE
RTEPMA0GA1UECAwGSGVzc2VuMRQwEgYDVQQKDAtwcml2YWN5aWRlYTEOMAwGA1UE
AwwFQ0EwMDEwHhcNMTYwNTA3MTEyMjQ4WhcNMTcwNTA3MTEyMjQ4WjA9MSUwIwYD
VQQDExxzZWxmc2VydmljZSxDTj11c2VyLE89cmVhbG0xMRQwEgYJKoZIhvcNAQkB
FgVtZWluZTCCASIwDQYJKoZIhvcNAQEBBQADggEPADCCAQoCggEBAM881DMOEsTm
2s22VqEcJrsmHIpKc6hYirYes4uZ0h0HwpKJecBp2MjfKGGYHrP+riu9eKn3bkfc
o6AWjIUCwU6S/XJu8MgDKZu4AG7Ag5XINCA2nLPl5OZ2c6MarUCW4FNUAOx2eZrG
DX62vSnsg/PLiaTLbAC6DMV4D/9puJT0BHBDP9ie16f7Xc51jtrnxAexnd5viEu2
TZrP+bz6n80ybfY6Cw0jQnjsl0K/Dk1gVuHTAvIZy4RXkOVwoaKDNYbi2oaf+YrE
ebNSKNrLuzTK09qRSs+NdqKya5v5lv0JKtoRI03wy9aysQ4SbJoZZZiHyuTuJM5E
rJCPnRvFKp0CAwEAAaOCAQ4wggEKMAsGA1UdDwQEAwIFoDAJBgNVHRMEAjAAMBEG
CWCGSAGG+EIBAQQEAwIGQDAzBglghkgBhvhCAQ0EJhYkT3BlblNTTCBHZW5lcmF0
ZWQgU2VydmVyIENlcnRpZmljYXRlMB0GA1UdDgQWBBRNB5Ct/x0N5xrd1i76ujTL
qh8kxjB0BgNVHSMEbTBrgBT0p8DMkUavZPOR8if4yLJviocyc6FIpEYwRDELMAkG
A1UEBhMCREUxDzANBgNVBAgMBkhlc3NlbjEUMBIGA1UECgwLcHJpdmFjeWlkZWEx
DjAMBgNVBAMMBUNBMDAxggkA+8jrrIPNEgcwEwYDVR0lBAwwCgYIKwYBBQUHAwEw
DQYJKoZIhvcNAQEFBQADggEBACUKjWyZxQ2lq/90Z3nltmithvFKqhtnRwUpqgz6
PVeUMhZUTe5O4c2yej03ySJIc2iO/BAHXDsySql8VcjOAZkWacXyS36zIrG4l4dv
hJwd0FAenCHXb/yjF9uR8ZFgCPsk7jy3M99dQX3RWMyf0hjCHC/CDsG3bG8pgv6H
OgsZObM3lHg6HQOF9ROPXx0AdzeWo6t5kN6l2ahiVCKT4KBpZb0poMzzwNkMcYuR
iw1Gzxdkz33AHHBVUAhQce3d4rilMwMl6TKqtriraFumI6gfeIuZ+jE4AHvL9nFG
G2N7tOc+bcbVNZ9YcZ40C37An5XMYFIRDp7eZAti216ErRk=
-----END CERTIFICATE-----
