Certificate:
    Data:
        Version: 3 (0x2)
        Serial Number: 268435660 (0x100000cc)
    Signature Algorithm: sha1WithRSAEncryption
        Issuer: C=DE, ST=Hessen, O=privacyidea, CN=CA001
        Validity
            Not Before: May 24 13:40:23 2016 GMT
            Not After : May 24 13:40:23 2017 GMT
        Subject: CN=Steve Test/emailAddress=steve@openssl.org
        Subject Public Key Info:
            Public Key Algorithm: rsaEncryption
                Public-Key: (2048 bit)
                Modulus:
                    00:d2:81:89:20:51:48:0f:73:f4:11:32:24:d5:1f:
                    1c:fd:5c:f5:b6:e6:c5:f0:52:81:dc:d2:af:66:4a:
                    7c:93:31:61:5c:af:d1:6d:06:70:03:60:7c:72:0c:
                    88:dd:49:cd:9e:02:6c:d2:5a:d7:53:0f:f3:da:be:
                    69:64:b5:0f:0c:00:e3:b3:50:47:a3:b3:9b:ba:13:
                    50:d6:58:5a:4b:ab:39:e0:11:ca:0a:27:67:03:78:
                    22:66:6d:92:1e:1b:5c:49:ae:e6:6b:d1:8e:3b:9d:
                    06:d3:c6:ac:4d:53:43:10:ab:e8:96:c1:87:82:97:
                    99:8f:20:d3:99:12:37:31:84:e1:8a:ff:29:03:5f:
                    22:90:3e:7f:9b:e0:20:c1:ad:dc:ae:4c:39:1a:31:
                    96:17:02:8c:b2:d9:b4:0d:20:12:9b:7d:86:54:fd:
                    33:fd:c1:2a:62:46:f8:60:96:cf:6e:01:6f:22:df:
                    13:47:e7:97:ec:05:72:23:a3:62:f8:fa:ef:ac:9c:
                    72:f0:37:cb:2f:37:cf:90:a8:27:51:86:c6:d7:78:
                    08:8f:7e:25:a2:15:70:a2:fb:1c:b6:15:5e:a0:97:
                    8b:81:4c:09:28:8a:27:3b:94:bc:71:db:5b:71:37:
                    9a:2b:16:e0:6f:b5:c9:f5:4b:4f:20:ba:65:cf:af:
                    ad:ad
                Exponent: 65537 (0x10001)
        X509v3 extensions:
            X509v3 Key Usage: 
                Digital Signature, Key Encipherment
            X509v3 Basic Constraints: 
                CA:FALSE
            Netscape Cert Type: 
                SSL Server
            Netscape Comment: 
                OpenSSL Generated Server Certificate
            X509v3 Subject Key Identifier: 
                E5:25:6D:3E:AF:0D:DD:3F:4C:F2:45:19:39:D5:14:DB:7E:9C:C0:AD
            X509v3 Authority Key Identifier: 
                keyid:F4:A7:C0:CC:91:46:AF:64:F3:91:F2:27:F8:C8:B2:6F:8A:87:32:73
                DirName:/C=DE/ST=Hessen/O=privacyidea/CN=CA001
                serial:FB:C8:EB:AC:83:CD:12:07

            X509v3 Extended Key Usage: 
                TLS Web Server Authentication
    Signature Algorithm: sha1WithRSAEncryption
         51:d2:b5:c7:1c:58:1a:d1:65:66:24:a2:a4:c2:b2:d9:38:6d:
         b9:8b:b0:7d:ab:c9:c2:3f:68:38:6f:c0:2d:45:18:7a:bb:b0:
         19:31:ff:72:ac:f5:8f:df:ec:83:40:6d:b2:38:15:c5:50:09:
         80:1a:12:37:76:0d:20:a3:57:39:6d:a9:50:f1:3b:2f:49:a8:
         f5:67:c5:95:5a:be:07:24:ea:c1:f9:48:34:e1:18:a3:75:a2:
         11:10:a3:d0:08:93:8f:5b:bf:88:4a:91:3a:5b:8e:b5:27:87:
         04:d2:19:77:86:40:df:55:70:8d:64:49:75:f3:07:90:b1:f5:
         67:e6:79:42:ad:88:f9:6c:ce:b9:e2:78:b7:37:a6:ad:1d:64:
         c2:68:02:98:ba:33:4b:8f:8d:11:47:14:2c:6e:e5:9d:84:0a:
         e9:c5:6f:11:c8:6a:85:74:2a:4c:c6:3e:33:e2:cb:5e:c3:07:
         fe:8b:d6:69:27:af:74:12:2c:6e:22:9c:26:3e:bd:15:e4:e3:
         f4:5d:2e:ae:fb:0e:5b:9e:65:b4:03:f1:54:03:4a:c4:1b:58:
         64:81:49:10:52:79:ca:25:d9:aa:80:38:c8:2a:25:dc:aa:91:
         20:f1:ef:32:f6:be:5c:fd:93:65:55:c4:31:da:cc:df:24:9e:
         4c:61:39:ed
-----BEGIN CERTIFICATE-----
MIIECTCCAvGgAwIBAgIEEAAAzDANBgkqhkiG9w0BAQUFADBEMQswCQYDVQQGEwJE
RTEPMA0GA1UECAwGSGVzc2VuMRQwEgYDVQQKDAtwcml2YWN5aWRlYTEOMAwGA1UE
AwwFQ0EwMDEwHhcNMTYwNTI0MTM0MDIzWhcNMTcwNTI0MTM0MDIzWjA3MRMwEQYD
VQQDEwpTdGV2ZSBUZXN0MSAwHgYJKoZIhvcNAQkBFhFzdGV2ZUBvcGVuc3NsLm9y
ZzCCASIwDQYJKoZIhvcNAQEBBQADggEPADCCAQoCggEBANKBiSBRSA9z9BEyJNUf
HP1c9bbmxfBSgdzSr2ZKfJMxYVyv0W0GcANgfHIMiN1JzZ4CbNJa11MP89q+aWS1
DwwA47NQR6Ozm7oTUNZYWkurOeARygonZwN4ImZtkh4bXEmu5mvRjjudBtPGrE1T
QxCr6JbBh4KXmY8g05kSNzGE4Yr/KQNfIpA+f5vgIMGt3K5MORoxlhcCjLLZtA0g
Ept9hlT9M/3BKmJG+GCWz24BbyLfE0fnl+wFciOjYvj676yccvA3yy83z5CoJ1GG
xtd4CI9+JaIVcKL7HLYVXqCXi4FMCSiKJzuUvHHbW3E3misW4G+1yfVLTyC6Zc+v
ra0CAwEAAaOCAQ4wggEKMAsGA1UdDwQEAwIFoDAJBgNVHRMEAjAAMBEGCWCGSAGG
+EIBAQQEAwIGQDAzBglghkgBhvhCAQ0EJhYkT3BlblNTTCBHZW5lcmF0ZWQgU2Vy
dmVyIENlcnRpZmljYXRlMB0GA1UdDgQWBBTlJW0+rw3dP0zyRRk51RTbfpzArTB0
BgNVHSMEbTBrgBT0p8DMkUavZPOR8if4yLJviocyc6FIpEYwRDELMAkGA1UEBhMC
REUxDzANBgNVBAgMBkhlc3NlbjEUMBIGA1UECgwLcHJpdmFjeWlkZWExDjAMBgNV
BAMMBUNBMDAxggkA+8jrrIPNEgcwEwYDVR0lBAwwCgYIKwYBBQUHAwEwDQYJKoZI
hvcNAQEFBQADggEBAFHStcccWBrRZWYkoqTCstk4bbmLsH2rycI/aDhvwC1FGHq7
sBkx/3Ks9Y/f7INAbbI4FcVQCYAaEjd2DSCjVzltqVDxOy9JqPVnxZVavgck6sH5
SDThGKN1ohEQo9AIk49bv4hKkTpbjrUnhwTSGXeGQN9VcI1kSXXzB5Cx9WfmeUKt
iPlszrnieLc3pq0dZMJoApi6M0uPjRFHFCxu5Z2ECunFbxHIaoV0KkzGPjPiy17D
B/6L1mknr3QSLG4inCY+vRXk4/RdLq77DlueZbQD8VQDSsQbWGSBSRBSecol2aqA
OMgqJdyqkSDx7zL2vlz9k2VVxDHazN8knkxhOe0=
-----END CERTIFICATE-----
