Certificate:
    Data:
        Version: 3 (0x2)
        Serial Number: 268435662 (0x100000ce)
    Signature Algorithm: sha1WithRSAEncryption
        Issuer: C=DE, ST=Hessen, O=privacyidea, CN=CA001
        Validity
            Not Before: May 24 13:43:23 2016 GMT
            Not After : May 24 13:43:23 2017 GMT
        Subject: OU=realm1, CN=cornelius/emailAddress=user@localhost.localdomain
        Subject Public Key Info:
            Public Key Algorithm: rsaEncryption
                Public-Key: (2048 bit)
                Modulus:
                    00:bd:7a:78:60:51:89:e0:7a:45:18:bc:83:b6:8c:
                    da:da:67:b7:f1:a7:a5:06:a2:fe:50:86:54:fb:73:
                    c9:e8:75:4b:7f:80:27:f7:6d:de:60:c6:86:a2:0b:
                    0b:d3:fa:06:55:2b:7d:18:17:2f:27:73:b5:d5:dc:
                    92:f1:1f:45:fe:b6:c3:bd:54:23:2c:75:45:f9:70:
                    74:2f:44:29:3e:09:5b:56:fe:54:f1:db:3d:fb:22:
                    ba:28:58:da:ba:b9:5d:e8:da:71:3b:b0:16:b2:e3:
                    d1:e0:8a:ef:47:a1:42:a7:28:f8:79:1d:66:8c:ba:
                    d1:fe:d1:41:da:95:4b:eb:92:89:81:3c:6e:77:36:
                    da:0c:c6:95:a7:01:87:c3:5d:87:cc:48:44:1e:22:
                    a5:4a:7e:dc:bb:ec:d1:ce:e2:f5:58:b3:b7:90:eb:
                    21:8b:4d:15:0c:30:9e:20:cc:de:fd:9f:f2:48:55:
                    ad:ef:ce:82:fd:7c:4f:3b:97:48:9d:59:eb:77:06:
                    95:45:3b:b8:bb:59:9d:5f:fc:2d:f4:f5:37:df:bd:
                    05:b8:59:a6:e7:a9:9d:05:da:c9:a1:b1:f4:70:f1:
                    33:ab:8f:6d:c4:9c:05:b9:ce:0d:fd:8c:a6:b5:0b:
                    98:96:5b:c5:ec:9b:43:65:83:f4:71:16:a3:15:84:
                    52:97
                Exponent: 65537 (0x10001)
        X509v3 extensions:
            X509v3 Key Usage: 
                Digital Signature, Key Encipherment
            X509v3 Basic Constraints: 
                CA:FALSE
            Netscape Cert Type: 
                SSL Server
            Netscape Comment: 
                OpenSSL Generated Server Certificate
            X509v3 Subject Key Identifier: 
                90:F7:EF:D3:66:9D:1D:8D:4C:18:21:C7:A1:B5:51:2F:0A:C8:3E:DB
            X509v3 Authority Key Identifier: 
                keyid:F4:A7:C0:CC:91:46:AF:64:F3:91:F2:27:F8:C8:B2:6F:8A:87:32:73
                DirName:/C=DE/ST=Hessen/O=privacyidea/CN=CA001
                serial:FB:C8:EB:AC:83:CD:12:07

            X509v3 Extended Key Usage: 
                TLS Web Server Authentication
    Signature Algorithm: sha1WithRSAEncryption
         66:ec:44:95:20:b6:f3:63:95:aa:b6:2e:bd:93:61:49:40:6e:
         dd:0c:4f:5e:0b:1d:c1:e1:7e:c8:66:ab:5b:77:86:b1:39:a3:
         dc:d7:2f:e9:c2:d6:06:e9:e8:e8:af:8f:61:85:fc:04:3a:6f:
         15:7c:7b:0c:08:20:be:14:a4:a9:91:0f:db:4e:93:38:c1:a3:
         44:da:5c:5e:48:1f:a4:38:b3:1f:56:fc:8b:ae:f1:01:4d:ca:
         83:fa:4a:6d:e6:9c:70:e5:a2:52:b2:2f:60:e2:ef:72:5f:94:
         0c:80:40:fe:e2:92:4a:ae:73:1b:52:9c:c6:ea:1f:e2:6b:32:
         c5:a8:41:ac:f6:1a:2e:91:00:da:a0:9b:34:a5:fc:84:cb:7e:
         da:90:d8:b7:77:0a:d6:1e:c2:d1:83:80:20:b2:47:ed:2d:28:
         6a:f4:d4:c7:72:40:d6:77:91:c3:02:f8:1b:0d:22:3d:b7:25:
         39:f7:37:d5:a4:98:97:1f:bd:7a:00:5f:66:f0:4c:e8:1c:6f:
         f8:54:45:96:37:ec:a9:48:a0:db:6f:ce:a0:ce:a5:14:09:0e:
         16:ee:b6:09:f1:02:6c:8e:9e:70:4f:23:2f:c1:80:33:59:2c:
         1d:3f:11:54:a9:ed:7e:87:c3:a5:9f:f0:74:10:9e:5c:14:cb:
         cf:7b:91:1a
-----BEGIN CERTIFICATE-----
MIIEIjCCAwqgAwIBAgIEEAAAzjANBgkqhkiG9w0BAQUFADBEMQswCQYDVQQGEwJE
RTEPMA0GA1UECAwGSGVzc2VuMRQwEgYDVQQKDAtwcml2YWN5aWRlYTEOMAwGA1UE
AwwFQ0EwMDEwHhcNMTYwNTI0MTM0MzIzWhcNMTcwNTI0MTM0MzIzWjBQMQ8wDQYD
VQQLEwZyZWFsbTExEjAQBgNVBAMTCWNvcm5lbGl1czEpMCcGCSqGSIb3DQEJARYa
dXNlckBsb2NhbGhvc3QubG9jYWxkb21haW4wggEiMA0GCSqGSIb3DQEBAQUAA4IB
DwAwggEKAoIBAQC9enhgUYngekUYvIO2jNraZ7fxp6UGov5QhlT7c8nodUt/gCf3
bd5gxoaiCwvT+gZVK30YFy8nc7XV3JLxH0X+tsO9VCMsdUX5cHQvRCk+CVtW/lTx
2z37IrooWNq6uV3o2nE7sBay49Hgiu9HoUKnKPh5HWaMutH+0UHalUvrkomBPG53
NtoMxpWnAYfDXYfMSEQeIqVKfty77NHO4vVYs7eQ6yGLTRUMMJ4gzN79n/JIVa3v
zoL9fE87l0idWet3BpVFO7i7WZ1f/C309TffvQW4WabnqZ0F2smhsfRw8TOrj23E
nAW5zg39jKa1C5iWW8Xsm0Nlg/RxFqMVhFKXAgMBAAGjggEOMIIBCjALBgNVHQ8E
BAMCBaAwCQYDVR0TBAIwADARBglghkgBhvhCAQEEBAMCBkAwMwYJYIZIAYb4QgEN
BCYWJE9wZW5TU0wgR2VuZXJhdGVkIFNlcnZlciBDZXJ0aWZpY2F0ZTAdBgNVHQ4E
FgQUkPfv02adHY1MGCHHobVRLwrIPtswdAYDVR0jBG0wa4AU9KfAzJFGr2TzkfIn
+Miyb4qHMnOhSKRGMEQxCzAJBgNVBAYTAkRFMQ8wDQYDVQQIDAZIZXNzZW4xFDAS
BgNVBAoMC3ByaXZhY3lpZGVhMQ4wDAYDVQQDDAVDQTAwMYIJAPvI66yDzRIHMBMG
A1UdJQQMMAoGCCsGAQUFBwMBMA0GCSqGSIb3DQEBBQUAA4IBAQBm7ESVILbzY5Wq
ti69k2FJQG7dDE9eCx3B4X7IZqtbd4axOaPc1y/pwtYG6ejor49hhfwEOm8VfHsM
CCC+FKSpkQ/bTpM4waNE2lxeSB+kOLMfVvyLrvEBTcqD+kpt5pxw5aJSsi9g4u9y
X5QMgED+4pJKrnMbUpzG6h/iazLFqEGs9houkQDaoJs0pfyEy37akNi3dwrWHsLR
g4AgskftLShq9NTHckDWd5HDAvgbDSI9tyU59zfVpJiXH716AF9m8EzoHG/4VEWW
N+ypSKDbb86gzqUUCQ4W7rYJ8QJsjp5wTyMvwYAzWSwdPxFUqe1+h8Oln/B0EJ5c
FMvPe5Ea
-----END CERTIFICATE-----
