Certificate:
    Data:
        Version: 3 (0x2)
        Serial Number: 268435663 (0x100000cf)
    Signature Algorithm: sha1WithRSAEncryption
        Issuer: C=DE, ST=Hessen, O=privacyidea, CN=CA001
        Validity
            Not Before: May 24 13:51:28 2016 GMT
            Not After : May 24 13:51:28 2017 GMT
        Subject: CN=selfservice,CN=user,O=realm1/emailAddress=meine
        Subject Public Key Info:
            Public Key Algorithm: rsaEncryption
                Public-Key: (2048 bit)
                Modulus:
                    00:cf:3c:d4:33:0e:12:c4:e6:da:cd:b6:56:a1:1c:
                    26:bb:26:1c:8a:4a:73:a8:58:8a:b6:1e:b3:8b:99:
                    d2:1d:07:c2:92:89:79:c0:69:d8:c8:df:28:61:98:
                    1e:b3:fe:ae:2b:bd:78:a9:f7:6e:47:dc:a3:a0:16:
                    8c:85:02:c1:4e:92:fd:72:6e:f0:c8:03:29:9b:b8:
                    00:6e:c0:83:95:c8:34:20:36:9c:b3:e5:e4:e6:76:
                    73:a3:1a:ad:40:96:e0:53:54:00:ec:76:79:9a:c6:
                    0d:7e:b6:bd:29:ec:83:f3:cb:89:a4:cb:6c:00:ba:
                    0c:c5:78:0f:ff:69:b8:94:f4:04:70:43:3f:d8:9e:
                    d7:a7:fb:5d:ce:75:8e:da:e7:c4:07:b1:9d:de:6f:
                    88:4b:b6:4d:9a:cf:f9:bc:fa:9f:cd:32:6d:f6:3a:
                    0b:0d:23:42:78:ec:97:42:bf:0e:4d:60:56:e1:d3:
                    02:f2:19:cb:84:57:90:e5:70:a1:a2:83:35:86:e2:
                    da:86:9f:f9:8a:c4:79:b3:52:28:da:cb:bb:34:ca:
                    d3:da:91:4a:cf:8d:76:a2:b2:6b:9b:f9:96:fd:09:
                    2a:da:11:23:4d:f0:cb:d6:b2:b1:0e:12:6c:9a:19:
                    65:98:87:ca:e4:ee:24:ce:44:ac:90:8f:9d:1b:c5:
                    2a:9d
                Exponent: 65537 (0x10001)
        X509v3 extensions:
            X509v3 Key Usage: 
                Digital Signature, Key Encipherment
            X509v3 Basic Constraints: 
                CA:FALSE
            Netscape Cert Type: 
                SSL Server
            Netscape Comment: 
                OpenSSL Generated Server Certificate
            X509v3 Subject Key Identifier: 
                4D:07:90:AD:FF:1D:0D:E7:1A:DD:D6:2E:FA:BA:34:CB:AA:1F:24:C6
            X509v3 Authority Key Identifier: 
                keyid:F4:A7:C0:CC:91:46:AF:64:F3:91:F2:27:F8:C8:B2:6F:8A:87:32:73
                DirName:/C=DE/ST=Hessen/O=privacyidea/CN=CA001
                serial:FB:C8:EB:AC:83:CD:12:07

            X509v3 Extended Key Usage: 
                TLS Web Server Authentication
    Signature Algorithm: sha1WithRSAEncryption
         7f:26:9a:9c:8c:00:1e:98:83:12:ec:5a:de:77:1f:76:cf:54:
         93:d9:d3:cb:7e:64:0d:7e:6c:9d:77:ce:67:82:a9:2b:94:1e:
         83:32:31:6a:e9:08:00:95:3e:b4:1f:35:de:29:49:0d:b8:43:
         9e:e3:5b:46:94:ba:8d:93:3d:34:79:b6:7d:86:bc:2b:1f:c6:
         65:02:e9:df:1d:65:e5:37:22:49:9b:2f:60:b9:73:1e:42:3b:
         69:80:16:71:7c:6f:d7:ee:9d:83:21:ba:de:14:37:dc:0d:08:
         94:5c:16:2a:95:a6:0f:a4:f1:94:92:33:93:2f:21:12:c0:a4:
         54:02:6b:6b:43:08:e3:2e:7a:aa:2a:e6:e0:ff:57:d4:8b:c5:
         99:db:c9:bd:59:a4:e0:cb:4c:64:10:7f:4c:db:de:ab:c3:28:
         3a:fd:b6:aa:5e:59:5d:65:ee:00:5b:28:68:f6:c1:be:46:24:
         31:db:bb:6c:14:47:a6:f5:75:8d:cd:2a:6c:5f:dc:7d:12:45:
         b3:2e:bd:30:5c:db:7f:a3:0c:4b:86:5b:35:8d:44:d1:da:18:
         49:f9:9b:4a:50:39:ec:23:86:fa:b6:9f:83:ca:ab:16:c5:94:
         e7:e9:75:90:ca:ee:4b:24:4b:2d:e3:20:be:93:93:0f:28:95:
         32:b5:78:14
-----BEGIN CERTIFICATE-----
MIIEDzCCAvegAwIBAgIEEAAAzzANBgkqhkiG9w0BAQUFADBEMQswCQYDVQQGEwJE
RTEPMA0GA1UECAwGSGVzc2VuMRQwEgYDVQQKDAtwcml2YWN5aWRlYTEOMAwGA1UE
AwwFQ0EwMDEwHhcNMTYwNTI0MTM1MTI4WhcNMTcwNTI0MTM1MTI4WjA9MSUwIwYD
VQQDExxzZWxmc2VydmljZSxDTj11c2VyLE89cmVhbG0xMRQwEgYJKoZIhvcNAQkB
FgVtZWluZTCCASIwDQYJKoZIhvcNAQEBBQADggEPADCCAQoCggEBAM881DMOEsTm
2s22VqEcJrsmHIpKc6hYirYes4uZ0h0HwpKJecBp2MjfKGGYHrP+riu9eKn3bkfc
o6AWjIUCwU6S/XJu8MgDKZu4AG7Ag5XINCA2nLPl5OZ2c6MarUCW4FNUAOx2eZrG
DX62vSnsg/PLiaTLbAC6DMV4D/9puJT0BHBDP9ie16f7Xc51jtrnxAexnd5viEu2
TZrP+bz6n80ybfY6Cw0jQnjsl0K/Dk1gVuHTAvIZy4RXkOVwoaKDNYbi2oaf+YrE
ebNSKNrLuzTK09qRSs+NdqKya5v5lv0JKtoRI03wy9aysQ4SbJoZZZiHyuTuJM5E
rJCPnRvFKp0CAwEAAaOCAQ4wggEKMAsGA1UdDwQEAwIFoDAJBgNVHRMEAjAAMBEG
CWCGSAGG+EIBAQQEAwIGQDAzBglghkgBhvhCAQ0EJhYkT3BlblNTTCBHZW5lcmF0
ZWQgU2VydmVyIENlcnRpZmljYXRlMB0GA1UdDgQWBBRNB5Ct/x0N5xrd1i76ujTL
qh8kxjB0BgNVHSMEbTBrgBT0p8DMkUavZPOR8if4yLJviocyc6FIpEYwRDELMAkG
A1UEBhMCREUxDzANBgNVBAgMBkhlc3NlbjEUMBIGA1UECgwLcHJpdmFjeWlkZWEx
DjAMBgNVBAMMBUNBMDAxggkA+8jrrIPNEgcwEwYDVR0lBAwwCgYIKwYBBQUHAwEw
DQYJKoZIhvcNAQEFBQADggEBAH8mmpyMAB6YgxLsWt53H3bPVJPZ08t+ZA1+bJ13
zmeCqSuUHoMyMWrpCACVPrQfNd4pSQ24Q57jW0aUuo2TPTR5tn2GvCsfxmUC6d8d
ZeU3IkmbL2C5cx5CO2mAFnF8b9funYMhut4UN9wNCJRcFiqVpg+k8ZSSM5MvIRLA
pFQCa2tDCOMueqoq5uD/V9SLxZnbyb1ZpODLTGQQf0zb3qvDKDr9tqpeWV1l7gBb
KGj2wb5GJDHbu2wUR6b1dY3NKmxf3H0SRbMuvTBc23+jDEuGWzWNRNHaGEn5m0pQ
Oewjhvq2n4PKqxbFlOfpdZDK7kskSy3jIL6Tkw8olTK1eBQ=
-----END CERTIFICATE-----
