Certificate:
    Data:
        Version: 3 (0x2)
        Serial Number: 268435664 (0x100000d0)
    Signature Algorithm: sha1WithRSAEncryption
        Issuer: C=DE, ST=Hessen, O=privacyidea, CN=CA001
        Validity
            Not Before: May  9 19:28:07 2016 GMT
            Not After : May  9 19:28:07 2017 GMT
        Subject: C=DE, ST=Hessen, O=privacyidea, CN=requester.localdomain
        Subject Public Key Info:
            Public Key Algorithm: rsaEncryption
                Public-Key: (2048 bit)
                Modulus:
                    00:cd:be:14:4f:fa:ce:01:3f:42:22:1b:1d:9c:af:
                    dd:92:d2:7f:db:6c:b7:3e:39:43:43:6b:13:03:f1:
                    05:f4:07:74:bc:76:69:28:0b:af:19:8e:d7:fc:e3:
                    cd:c6:58:f2:ca:7f:08:6d:53:fc:07:02:44:24:c6:
                    b4:34:4c:8c:04:fe:33:0e:40:e2:20:ba:02:73:5a:
                    f7:f5:4f:63:6e:cc:c6:b6:df:54:1d:37:39:7d:51:
                    36:26:5f:bd:dc:3f:a8:8b:6b:a2:ae:b6:9d:d6:21:
                    e7:df:41:b8:7a:28:2a:68:48:ca:a8:2d:ed:e1:e9:
                    46:5e:5a:72:6d:b4:84:38:87:91:fd:94:11:0b:28:
                    84:c6:c2:2f:2a:fb:01:f9:36:7a:09:75:d1:33:88:
                    3c:73:41:5b:c8:bf:94:89:70:a1:f0:c0:b9:2e:50:
                    53:1e:b1:17:64:69:f4:2d:81:e0:a9:0d:0e:32:e9:
                    ba:55:8a:85:f1:1b:6f:49:79:b4:7f:88:c3:0d:3e:
                    54:88:9b:3d:1f:38:8c:04:f3:ee:6a:63:2b:f5:c6:
                    db:b4:83:aa:c4:78:41:3a:7d:4b:e1:c8:3e:71:ca:
                    1b:61:59:ea:c6:c4:ca:32:5e:c9:e9:bf:12:29:e6:
                    c6:c3:63:fe:a0:55:da:7a:f1:60:98:4d:26:ed:fa:
                    70:2d
                Exponent: 65537 (0x10001)
        X509v3 extensions:
            X509v3 Key Usage: 
                Digital Signature, Key Encipherment
            X509v3 Basic Constraints: 
                CA:FALSE
            Netscape Cert Type: 
                SSL Server
            Netscape Comment: 
                OpenSSL Generated Server Certificate
            X509v3 Subject Key Identifier: 
                53:3F:ED:5D:09:07:B3:65:7B:AB:45:C9:24:5B:09:77:80:0A:96:ED
            X509v3 Authority Key Identifier: 
                keyid:F4:A7:C0:CC:91:46:AF:64:F3:91:F2:27:F8:C8:B2:6F:8A:87:32:73
                DirName:/C=DE/ST=Hessen/O=privacyidea/CN=CA001
                serial:FB:C8:EB:AC:83:CD:12:07

            X509v3 Extended Key Usage: 
                TLS Web Server Authentication
    Signature Algorithm: sha1WithRSAEncryption
         bd:bd:48:72:56:e1:54:3a:a3:e5:18:72:8c:f4:9b:30:86:2e:
         14:23:4a:b8:aa:21:55:85:d4:03:08:75:da:23:6c:79:d7:8c:
         36:cf:82:0a:ef:47:77:35:01:00:df:d8:b2:9b:3a:65:2b:da:
         01:e6:dc:93:5d:19:f5:0b:30:15:75:f0:89:9b:81:0c:96:5c:
         d1:24:6f:22:b5:ca:5a:6b:f5:83:a8:05:fa:52:05:c3:c0:f9:
         2d:77:b7:64:98:9a:15:09:2c:5c:6a:99:8e:cc:c6:90:76:f1:
         b2:c4:4a:ce:a4:db:11:c7:6f:10:95:86:cf:d6:00:e8:64:bb:
         01:c0:7f:93:5d:6a:bf:92:76:0e:df:02:e2:a7:b2:ef:82:ba:
         46:e4:3c:45:ad:91:0a:62:30:f4:f7:02:49:78:2c:ef:20:a4:
         5b:28:c5:e7:8c:64:f2:38:3b:d9:8e:ac:38:83:f3:21:eb:c8:
         0c:93:df:0f:4f:2f:08:1d:e9:35:22:b2:2d:74:26:69:61:50:
         59:73:2f:c2:6b:23:c9:61:27:f0:1b:e3:3f:1a:e3:50:eb:00:
         36:ea:99:81:cd:65:a6:3a:64:49:92:b1:f2:54:67:17:b3:45:
         f0:3c:03:ea:ac:37:70:01:c4:c2:aa:b2:d3:1e:39:72:a4:94:
         7b:b6:b0:a6
-----BEGIN CERTIFICATE-----
MIIEJjCCAw6gAwIBAgIEEAAA0DANBgkqhkiG9w0BAQUFADBEMQswCQYDVQQGEwJE
RTEPMA0GA1UECAwGSGVzc2VuMRQwEgYDVQQKDAtwcml2YWN5aWRlYTEOMAwGA1UE
AwwFQ0EwMDEwHhcNMTYwNTA5MTkyODA3WhcNMTcwNTA5MTkyODA3WjBUMQswCQYD
VQQGEwJERTEPMA0GA1UECAwGSGVzc2VuMRQwEgYDVQQKDAtwcml2YWN5aWRlYTEe
MBwGA1UEAwwVcmVxdWVzdGVyLmxvY2FsZG9tYWluMIIBIjANBgkqhkiG9w0BAQEF
AAOCAQ8AMIIBCgKCAQEAzb4UT/rOAT9CIhsdnK/dktJ/22y3PjlDQ2sTA/EF9Ad0
vHZpKAuvGY7X/OPNxljyyn8IbVP8BwJEJMa0NEyMBP4zDkDiILoCc1r39U9jbszG
tt9UHTc5fVE2Jl+93D+oi2uirrad1iHn30G4eigqaEjKqC3t4elGXlpybbSEOIeR
/ZQRCyiExsIvKvsB+TZ6CXXRM4g8c0FbyL+UiXCh8MC5LlBTHrEXZGn0LYHgqQ0O
Mum6VYqF8RtvSXm0f4jDDT5UiJs9HziMBPPuamMr9cbbtIOqxHhBOn1L4cg+ccob
YVnqxsTKMl7J6b8SKebGw2P+oFXaevFgmE0m7fpwLQIDAQABo4IBDjCCAQowCwYD
VR0PBAQDAgWgMAkGA1UdEwQCMAAwEQYJYIZIAYb4QgEBBAQDAgZAMDMGCWCGSAGG
+EIBDQQmFiRPcGVuU1NMIEdlbmVyYXRlZCBTZXJ2ZXIgQ2VydGlmaWNhdGUwHQYD
VR0OBBYEFFM/7V0JB7Nle6tFySRbCXeACpbtMHQGA1UdIwRtMGuAFPSnwMyRRq9k
85HyJ/jIsm+KhzJzoUikRjBEMQswCQYDVQQGEwJERTEPMA0GA1UECAwGSGVzc2Vu
MRQwEgYDVQQKDAtwcml2YWN5aWRlYTEOMAwGA1UEAwwFQ0EwMDGCCQD7yOusg80S
BzATBgNVHSUEDDAKBggrBgEFBQcDATANBgkqhkiG9w0BAQUFAAOCAQEAvb1Iclbh
VDqj5RhyjPSbMIYuFCNKuKohVYXUAwh12iNsedeMNs+CCu9HdzUBAN/Ysps6ZSva
Aebck10Z9QswFXXwiZuBDJZc0SRvIrXKWmv1g6gF+lIFw8D5LXe3ZJiaFQksXGqZ
jszGkHbxssRKzqTbEcdvEJWGz9YA6GS7AcB/k11qv5J2Dt8C4qey74K6RuQ8Ra2R
CmIw9PcCSXgs7yCkWyjF54xk8jg72Y6sOIPzIevIDJPfD08vCB3pNSKyLXQmaWFQ
WXMvwmsjyWEn8BvjPxrjUOsANuqZgc1lpjpkSZKx8lRnF7NF8DwD6qw3cAHEwqqy
0x45cqSUe7awpg==
-----END CERTIFICATE-----
