Certificate:
    Data:
        Version: 3 (0x2)
        Serial Number: 268435665 (0x100000d1)
    Signature Algorithm: sha1WithRSAEncryption
        Issuer: C=DE, ST=Hessen, O=privacyidea, CN=CA001
        Validity
            Not Before: May  9 19:28:07 2016 GMT
            Not After : May  9 19:28:07 2017 GMT
        Subject: C=DE, ST=Hessen, O=privacyidea, CN=usercert
        Subject Public Key Info:
            Public Key Algorithm: rsaEncryption
                Public-Key: (2048 bit)
                Modulus:
                    00:dc:2f:d1:5f:29:97:d4:7c:c3:53:c8:30:bd:4b:
                    67:70:2c:24:6b:b8:5e:eb:21:7a:48:12:56:7c:81:
                    5c:48:75:b6:68:eb:f6:f2:98:4e:50:51:d1:7f:6c:
                    73:f3:0a:a7:ae:be:48:5e:e5:d6:e1:d9:2a:7c:32:
                    6e:4e:fd:08:f6:5a:54:49:23:73:c3:b9:07:18:d1:
                    ef:b3:ac:f8:8a:dc:94:96:a4:90:3a:8e:74:df:e6:
                    0d:37:1b:bd:5b:b7:25:1a:56:39:da:6f:91:aa:5e:
                    1c:74:f3:f9:7c:14:01:83:12:65:76:c7:bb:fe:36:
                    5b:95:e9:72:65:83:ed:3e:98:30:71:fa:87:dd:a3:
                    36:5a:30:03:2e:26:e0:61:d1:bf:02:3f:b6:06:1f:
                    4a:89:28:1c:5c:a2:ff:4e:be:94:e6:8c:e0:da:82:
                    f1:9d:29:32:48:30:73:b4:04:f6:42:1e:be:f7:e2:
                    32:32:27:3c:9d:89:2f:70:3e:85:9a:6f:5c:c5:09:
                    c0:8c:32:2f:72:22:c9:d2:95:1f:b6:ac:72:60:72:
                    b7:82:4d:6b:ce:5b:e3:00:d0:d2:2f:58:c6:e0:10:
                    e5:51:ca:4d:3b:2e:e6:7e:ab:84:d6:56:f1:93:35:
                    a0:93:64:26:81:75:2f:91:b5:16:06:38:0b:db:cc:
                    2d:07
                Exponent: 65537 (0x10001)
        X509v3 extensions:
            X509v3 Key Usage: 
                Digital Signature, Key Encipherment
            X509v3 Basic Constraints: 
                CA:FALSE
            Netscape Cert Type: 
                SSL Server
            Netscape Comment: 
                OpenSSL Generated Server Certificate
            X509v3 Subject Key Identifier: 
                FC:14:D1:F0:4B:8D:00:90:F2:F5:B8:71:9E:4E:97:C3:92:54:AD:0B
            X509v3 Authority Key Identifier: 
                keyid:F4:A7:C0:CC:91:46:AF:64:F3:91:F2:27:F8:C8:B2:6F:8A:87:32:73
                DirName:/C=DE/ST=Hessen/O=privacyidea/CN=CA001
                serial:FB:C8:EB:AC:83:CD:12:07

            X509v3 Extended Key Usage: 
                TLS Web Server Authentication
    Signature Algorithm: sha1WithRSAEncryption
         85:f6:0e:33:10:aa:c8:80:36:b8:b6:bb:50:68:94:40:cb:f9:
         8e:f6:ce:f2:1b:6e:cc:79:e0:2e:11:0a:e9:d8:85:95:88:64:
         1f:a8:28:cb:04:41:f0:3c:2e:8d:d8:e5:03:59:e4:eb:06:f0:
         8b:be:75:f6:26:d2:5a:4e:62:19:ba:b8:83:72:eb:33:93:ae:
         b8:b6:9d:95:4a:75:2d:8c:39:dd:fa:06:ec:37:19:78:eb:e6:
         33:1e:55:27:77:37:82:af:00:57:ce:87:f8:3e:02:0b:a3:b7:
         c8:5f:21:d8:ed:b5:99:0c:dd:a4:22:cb:02:71:9f:f7:aa:89:
         06:8c:0c:d7:e5:98:30:2e:e1:cb:a5:25:2d:78:b6:5e:3c:4e:
         ce:e1:17:a4:32:39:0c:e3:95:a1:50:12:ee:9b:af:45:3c:ed:
         1e:13:6a:64:58:84:8b:ee:9b:4b:db:35:18:7f:38:26:b4:e0:
         03:5a:dc:03:32:b1:08:ff:3b:6d:47:78:d7:db:02:b1:3f:ee:
         15:62:ad:c4:88:97:1e:eb:2b:ca:d1:e4:a1:b5:ec:7d:d8:fc:
         fb:c1:28:6d:18:a2:dd:08:be:58:d8:89:45:61:94:ff:9f:e0:
         f1:56:6a:dc:6d:e0:0a:73:db:d3:9f:ea:df:67:30:1a:0a:0d:
         96:b1:0a:36
-----BEGIN CERTIFICATE-----
MIIEGTCCAwGgAwIBAgIEEAAA0TANBgkqhkiG9w0BAQUFADBEMQswCQYDVQQGEwJE
RTEPMA0GA1UECAwGSGVzc2VuMRQwEgYDVQQKDAtwcml2YWN5aWRlYTEOMAwGA1UE
AwwFQ0EwMDEwHhcNMTYwNTA5MTkyODA3WhcNMTcwNTA5MTkyODA3WjBHMQswCQYD
VQQGEwJERTEPMA0GA1UECAwGSGVzc2VuMRQwEgYDVQQKDAtwcml2YWN5aWRlYTER
MA8GA1UEAwwIdXNlcmNlcnQwggEiMA0GCSqGSIb3DQEBAQUAA4IBDwAwggEKAoIB
AQDcL9FfKZfUfMNTyDC9S2dwLCRruF7rIXpIElZ8gVxIdbZo6/bymE5QUdF/bHPz
Cqeuvkhe5dbh2Sp8Mm5O/Qj2WlRJI3PDuQcY0e+zrPiK3JSWpJA6jnTf5g03G71b
tyUaVjnab5GqXhx08/l8FAGDEmV2x7v+NluV6XJlg+0+mDBx+ofdozZaMAMuJuBh
0b8CP7YGH0qJKBxcov9OvpTmjODagvGdKTJIMHO0BPZCHr734jIyJzydiS9wPoWa
b1zFCcCMMi9yIsnSlR+2rHJgcreCTWvOW+MA0NIvWMbgEOVRyk07LuZ+q4TWVvGT
NaCTZCaBdS+RtRYGOAvbzC0HAgMBAAGjggEOMIIBCjALBgNVHQ8EBAMCBaAwCQYD
VR0TBAIwADARBglghkgBhvhCAQEEBAMCBkAwMwYJYIZIAYb4QgENBCYWJE9wZW5T
U0wgR2VuZXJhdGVkIFNlcnZlciBDZXJ0aWZpY2F0ZTAdBgNVHQ4EFgQU/BTR8EuN
AJDy9bhxnk6Xw5JUrQswdAYDVR0jBG0wa4AU9KfAzJFGr2TzkfIn+Miyb4qHMnOh
SKRGMEQxCzAJBgNVBAYTAkRFMQ8wDQYDVQQIDAZIZXNzZW4xFDASBgNVBAoMC3By
aXZhY3lpZGVhMQ4wDAYDVQQDDAVDQTAwMYIJAPvI66yDzRIHMBMGA1UdJQQMMAoG
CCsGAQUFBwMBMA0GCSqGSIb3DQEBBQUAA4IBAQCF9g4zEKrIgDa4trtQaJRAy/mO
9s7yG27MeeAuEQrp2IWViGQfqCjLBEHwPC6N2OUDWeTrBvCLvnX2JtJaTmIZuriD
cuszk664tp2VSnUtjDnd+gbsNxl46+YzHlUndzeCrwBXzof4PgILo7fIXyHY7bWZ
DN2kIssCcZ/3qokGjAzX5ZgwLuHLpSUteLZePE7O4RekMjkM45WhUBLum69FPO0e
E2pkWISL7ptL2zUYfzgmtOADWtwDMrEI/zttR3jX2wKxP+4VYq3EiJce6yvK0eSh
tex92Pz7wShtGKLdCL5Y2IlFYZT/n+DxVmrcbeAKc9vTn+rfZzAaCg2WsQo2
-----END CERTIFICATE-----
