Certificate:
    Data:
        Version: 3 (0x2)
        Serial Number: 268435669 (0x100000d5)
    Signature Algorithm: sha1WithRSAEncryption
        Issuer: C=DE, ST=Hessen, O=privacyidea, CN=CA001
        Validity
            Not Before: May  9 19:39:22 2016 GMT
            Not After : May  9 19:39:22 2017 GMT
        Subject: CN=selfservice,CN=user,O=realm1/emailAddress=meine
        Subject Public Key Info:
            Public Key Algorithm: rsaEncryption
                Public-Key: (2048 bit)
                Modulus:
                    00:cf:3c:d4:33:0e:12:c4:e6:da:cd:b6:56:a1:1c:
                    26:bb:26:1c:8a:4a:73:a8:58:8a:b6:1e:b3:8b:99:
                    d2:1d:07:c2:92:89:79:c0:69:d8:c8:df:28:61:98:
                    1e:b3:fe:ae:2b:bd:78:a9:f7:6e:47:dc:a3:a0:16:
                    8c:85:02:c1:4e:92:fd:72:6e:f0:c8:03:29:9b:b8:
                    00:6e:c0:83:95:c8:34:20:36:9c:b3:e5:e4:e6:76:
                    73:a3:1a:ad:40:96:e0:53:54:00:ec:76:79:9a:c6:
                    0d:7e:b6:bd:29:ec:83:f3:cb:89:a4:cb:6c:00:ba:
                    0c:c5:78:0f:ff:69:b8:94:f4:04:70:43:3f:d8:9e:
                    d7:a7:fb:5d:ce:75:8e:da:e7:c4:07:b1:9d:de:6f:
                    88:4b:b6:4d:9a:cf:f9:bc:fa:9f:cd:32:6d:f6:3a:
                    0b:0d:23:42:78:ec:97:42:bf:0e:4d:60:56:e1:d3:
                    02:f2:19:cb:84:57:90:e5:70:a1:a2:83:35:86:e2:
                    da:86:9f:f9:8a:c4:79:b3:52:28:da:cb:bb:34:ca:
                    d3:da:91:4a:cf:8d:76:a2:b2:6b:9b:f9:96:fd:09:
                    2a:da:11:23:4d:f0:cb:d6:b2:b1:0e:12:6c:9a:19:
                    65:98:87:ca:e4:ee:24:ce:44:ac:90:8f:9d:1b:c5:
                    2a:9d
                Exponent: 65537 (0x10001)
        X509v3 extensions:
            X509v3 Key Usage: 
                Digital Signature, Key Encipherment
            X509v3 Basic Constraints: 
                CA:FALSE
            Netscape Cert Type: 
                SSL Server
            Netscape Comment: 
                OpenSSL Generated Server Certificate
            X509v3 Subject Key Identifier: 
                4D:07:90:AD:FF:1D:0D:E7:1A:DD:D6:2E:FA:BA:34:CB:AA:1F:24:C6
            X509v3 Authority Key Identifier: 
                keyid:F4:A7:C0:CC:91:46:AF:64:F3:91:F2:27:F8:C8:B2:6F:8A:87:32:73
                DirName:/C=DE/ST=Hessen/O=privacyidea/CN=CA001
                serial:FB:C8:EB:AC:83:CD:12:07

            X509v3 Extended Key Usage: 
                TLS Web Server Authentication
    Signature Algorithm: sha1WithRSAEncryption
         83:c9:9a:f8:11:f9:50:68:3b:a3:86:9c:b4:5a:03:2e:a2:2d:
         6c:11:9a:91:ec:ad:74:c8:21:29:84:69:50:12:52:a4:20:54:
         46:a8:0e:df:42:54:9e:a1:a8:b3:5f:a5:27:8d:7a:15:6a:bf:
         bf:42:24:67:6b:b8:fb:a3:ab:50:e3:2a:6b:43:ed:0b:92:fa:
         d9:c9:c4:eb:ac:9b:05:28:c8:52:5f:37:43:fd:8a:1c:d9:80:
         67:2e:55:39:0c:93:64:63:81:b1:dd:ca:95:ee:08:5e:e7:3d:
         2d:71:b9:99:9e:f5:49:3b:af:db:15:df:cf:6b:5d:92:d0:69:
         48:9e:23:fb:88:20:be:69:f0:23:82:ff:71:63:bb:12:e5:a9:
         a7:6d:62:d8:94:30:51:5a:9c:ec:4d:f1:9e:58:65:ff:5c:85:
         1e:d1:af:fa:4c:bd:b6:59:9a:48:cd:76:e2:81:df:8d:d9:1f:
         06:2a:65:76:15:8f:b4:3d:52:ac:db:ae:84:c0:ac:9d:65:76:
         9d:b1:0a:cc:95:49:e5:4a:a0:ef:cf:33:28:47:74:46:91:13:
         33:59:c9:f5:c5:7b:91:d9:7e:54:f3:5a:d5:15:36:d7:f1:0e:
         30:39:c0:e4:11:31:1c:a2:0b:2a:8b:05:f2:4c:74:19:54:db:
         ba:0c:47:8c
-----BEGIN CERTIFICATE-----
MIIEDzCCAvegAwIBAgIEEAAA1TANBgkqhkiG9w0BAQUFADBEMQswCQYDVQQGEwJE
RTEPMA0GA1UECAwGSGVzc2VuMRQwEgYDVQQKDAtwcml2YWN5aWRlYTEOMAwGA1UE
AwwFQ0EwMDEwHhcNMTYwNTA5MTkzOTIyWhcNMTcwNTA5MTkzOTIyWjA9MSUwIwYD
VQQDExxzZWxmc2VydmljZSxDTj11c2VyLE89cmVhbG0xMRQwEgYJKoZIhvcNAQkB
FgVtZWluZTCCASIwDQYJKoZIhvcNAQEBBQADggEPADCCAQoCggEBAM881DMOEsTm
2s22VqEcJrsmHIpKc6hYirYes4uZ0h0HwpKJecBp2MjfKGGYHrP+riu9eKn3bkfc
o6AWjIUCwU6S/XJu8MgDKZu4AG7Ag5XINCA2nLPl5OZ2c6MarUCW4FNUAOx2eZrG
DX62vSnsg/PLiaTLbAC6DMV4D/9puJT0BHBDP9ie16f7Xc51jtrnxAexnd5viEu2
TZrP+bz6n80ybfY6Cw0jQnjsl0K/Dk1gVuHTAvIZy4RXkOVwoaKDNYbi2oaf+YrE
ebNSKNrLuzTK09qRSs+NdqKya5v5lv0JKtoRI03wy9aysQ4SbJoZZZiHyuTuJM5E
rJCPnRvFKp0CAwEAAaOCAQ4wggEKMAsGA1UdDwQEAwIFoDAJBgNVHRMEAjAAMBEG
CWCGSAGG+EIBAQQEAwIGQDAzBglghkgBhvhCAQ0EJhYkT3BlblNTTCBHZW5lcmF0
ZWQgU2VydmVyIENlcnRpZmljYXRlMB0GA1UdDgQWBBRNB5Ct/x0N5xrd1i76ujTL
qh8kxjB0BgNVHSMEbTBrgBT0p8DMkUavZPOR8if4yLJviocyc6FIpEYwRDELMAkG
A1UEBhMCREUxDzANBgNVBAgMBkhlc3NlbjEUMBIGA1UECgwLcHJpdmFjeWlkZWEx
DjAMBgNVBAMMBUNBMDAxggkA+8jrrIPNEgcwEwYDVR0lBAwwCgYIKwYBBQUHAwEw
DQYJKoZIhvcNAQEFBQADggEBAIPJmvgR+VBoO6OGnLRaAy6iLWwRmpHsrXTIISmE
aVASUqQgVEaoDt9CVJ6hqLNfpSeNehVqv79CJGdruPujq1DjKmtD7QuS+tnJxOus
mwUoyFJfN0P9ihzZgGcuVTkMk2RjgbHdypXuCF7nPS1xuZme9Uk7r9sV389rXZLQ
aUieI/uIIL5p8COC/3FjuxLlqadtYtiUMFFanOxN8Z5YZf9chR7Rr/pMvbZZmkjN
duKB343ZHwYqZXYVj7Q9UqzbroTArJ1ldp2xCsyVSeVKoO/PMyhHdEaREzNZyfXF
e5HZflTzWtUVNtfxDjA5wOQRMRyiCyqLBfJMdBlU27oMR4w=
-----END CERTIFICATE-----
