Certificate:
    Data:
        Version: 3 (0x2)
        Serial Number: 268435658 (0x100000ca)
    Signature Algorithm: sha1WithRSAEncryption
        Issuer: C=DE, ST=Hessen, O=privacyidea, CN=CA001
        Validity
            Not Before: May 24 13:40:23 2016 GMT
            Not After : May 24 13:40:23 2017 GMT
        Subject: C=DE, ST=Hessen, O=privacyidea, CN=requester.localdomain
        Subject Public Key Info:
            Public Key Algorithm: rsaEncryption
                Public-Key: (2048 bit)
                Modulus:
                    00:cd:be:14:4f:fa:ce:01:3f:42:22:1b:1d:9c:af:
                    dd:92:d2:7f:db:6c:b7:3e:39:43:43:6b:13:03:f1:
                    05:f4:07:74:bc:76:69:28:0b:af:19:8e:d7:fc:e3:
                    cd:c6:58:f2:ca:7f:08:6d:53:fc:07:02:44:24:c6:
                    b4:34:4c:8c:04:fe:33:0e:40:e2:20:ba:02:73:5a:
                    f7:f5:4f:63:6e:cc:c6:b6:df:54:1d:37:39:7d:51:
                    36:26:5f:bd:dc:3f:a8:8b:6b:a2:ae:b6:9d:d6:21:
                    e7:df:41:b8:7a:28:2a:68:48:ca:a8:2d:ed:e1:e9:
                    46:5e:5a:72:6d:b4:84:38:87:91:fd:94:11:0b:28:
                    84:c6:c2:2f:2a:fb:01:f9:36:7a:09:75:d1:33:88:
                    3c:73:41:5b:c8:bf:94:89:70:a1:f0:c0:b9:2e:50:
                    53:1e:b1:17:64:69:f4:2d:81:e0:a9:0d:0e:32:e9:
                    ba:55:8a:85:f1:1b:6f:49:79:b4:7f:88:c3:0d:3e:
                    54:88:9b:3d:1f:38:8c:04:f3:ee:6a:63:2b:f5:c6:
                    db:b4:83:aa:c4:78:41:3a:7d:4b:e1:c8:3e:71:ca:
                    1b:61:59:ea:c6:c4:ca:32:5e:c9:e9:bf:12:29:e6:
                    c6:c3:63:fe:a0:55:da:7a:f1:60:98:4d:26:ed:fa:
                    70:2d
                Exponent: 65537 (0x10001)
        X509v3 extensions:
            X509v3 Key Usage: 
                Digital Signature, Key Encipherment
            X509v3 Basic Constraints: 
                CA:FALSE
            Netscape Cert Type: 
                SSL Server
            Netscape Comment: 
                OpenSSL Generated Server Certificate
            X509v3 Subject Key Identifier: 
                53:3F:ED:5D:09:07:B3:65:7B:AB:45:C9:24:5B:09:77:80:0A:96:ED
            X509v3 Authority Key Identifier: 
                keyid:F4:A7:C0:CC:91:46:AF:64:F3:91:F2:27:F8:C8:B2:6F:8A:87:32:73
                DirName:/C=DE/ST=Hessen/O=privacyidea/CN=CA001
                serial:FB:C8:EB:AC:83:CD:12:07

            X509v3 Extended Key Usage: 
                TLS Web Server Authentication
    Signature Algorithm: sha1WithRSAEncryption
         26:60:96:0d:bf:19:52:8f:6d:0b:37:19:e7:c5:a7:1e:eb:47:
         28:1f:30:d3:11:c2:e3:73:6a:43:6b:74:ba:b9:a0:39:9d:35:
         45:b6:a9:08:d2:e9:ff:44:fc:e8:74:47:ce:61:70:f8:e7:c7:
         57:34:3f:6a:ff:47:8b:82:08:2e:a1:6f:48:85:fb:15:ed:de:
         1a:be:81:5b:94:01:f0:19:13:c9:db:84:21:22:79:74:9b:f3:
         4a:52:99:82:7a:83:80:10:ce:21:57:b0:e6:3c:98:48:85:20:
         03:21:06:b1:d1:1c:a6:4e:6c:d3:93:c0:07:fb:a4:58:fa:e5:
         e0:e9:74:c7:48:ab:49:6c:b1:60:6d:a4:ea:8a:58:4c:22:d5:
         22:9b:cd:ee:ed:73:c4:90:a0:d4:a0:08:a9:1d:30:2c:67:a4:
         30:8e:52:b2:4e:6a:5c:df:4c:16:a8:e8:af:75:1a:72:68:ee:
         99:9b:f1:7b:78:20:53:96:49:7c:a2:da:61:2e:a3:73:4e:2b:
         93:9b:78:3c:5e:c7:71:63:3d:e1:f4:da:6d:47:94:d6:ac:4b:
         b1:1c:fb:b9:7e:60:3b:f6:80:61:7f:7a:c2:a8:cd:37:e5:95:
         f6:93:e4:21:b1:d0:46:ff:52:40:7e:f3:c2:07:7a:91:d6:7e:
         f2:9f:a5:cf
-----BEGIN CERTIFICATE-----
MIIEJjCCAw6gAwIBAgIEEAAAyjANBgkqhkiG9w0BAQUFADBEMQswCQYDVQQGEwJE
RTEPMA0GA1UECAwGSGVzc2VuMRQwEgYDVQQKDAtwcml2YWN5aWRlYTEOMAwGA1UE
AwwFQ0EwMDEwHhcNMTYwNTI0MTM0MDIzWhcNMTcwNTI0MTM0MDIzWjBUMQswCQYD
VQQGEwJERTEPMA0GA1UECAwGSGVzc2VuMRQwEgYDVQQKDAtwcml2YWN5aWRlYTEe
MBwGA1UEAwwVcmVxdWVzdGVyLmxvY2FsZG9tYWluMIIBIjANBgkqhkiG9w0BAQEF
AAOCAQ8AMIIBCgKCAQEAzb4UT/rOAT9CIhsdnK/dktJ/22y3PjlDQ2sTA/EF9Ad0
vHZpKAuvGY7X/OPNxljyyn8IbVP8BwJEJMa0NEyMBP4zDkDiILoCc1r39U9jbszG
tt9UHTc5fVE2Jl+93D+oi2uirrad1iHn30G4eigqaEjKqC3t4elGXlpybbSEOIeR
/ZQRCyiExsIvKvsB+TZ6CXXRM4g8c0FbyL+UiXCh8MC5LlBTHrEXZGn0LYHgqQ0O
Mum6VYqF8RtvSXm0f4jDDT5UiJs9HziMBPPuamMr9cbbtIOqxHhBOn1L4cg+ccob
YVnqxsTKMl7J6b8SKebGw2P+oFXaevFgmE0m7fpwLQIDAQABo4IBDjCCAQowCwYD
VR0PBAQDAgWgMAkGA1UdEwQCMAAwEQYJYIZIAYb4QgEBBAQDAgZAMDMGCWCGSAGG
+EIBDQQmFiRPcGVuU1NMIEdlbmVyYXRlZCBTZXJ2ZXIgQ2VydGlmaWNhdGUwHQYD
VR0OBBYEFFM/7V0JB7Nle6tFySRbCXeACpbtMHQGA1UdIwRtMGuAFPSnwMyRRq9k
85HyJ/jIsm+KhzJzoUikRjBEMQswCQYDVQQGEwJERTEPMA0GA1UECAwGSGVzc2Vu
MRQwEgYDVQQKDAtwcml2YWN5aWRlYTEOMAwGA1UEAwwFQ0EwMDGCCQD7yOusg80S
BzATBgNVHSUEDDAKBggrBgEFBQcDATANBgkqhkiG9w0BAQUFAAOCAQEAJmCWDb8Z
Uo9tCzcZ58WnHutHKB8w0xHC43NqQ2t0urmgOZ01RbapCNLp/0T86HRHzmFw+OfH
VzQ/av9Hi4IILqFvSIX7Fe3eGr6BW5QB8BkTyduEISJ5dJvzSlKZgnqDgBDOIVew
5jyYSIUgAyEGsdEcpk5s05PAB/ukWPrl4Ol0x0irSWyxYG2k6opYTCLVIpvN7u1z
xJCg1KAIqR0wLGekMI5Ssk5qXN9MFqjor3UacmjumZvxe3ggU5ZJfKLaYS6jc04r
k5t4PF7HcWM94fTabUeU1qxLsRz7uX5gO/aAYX96wqjNN+WV9pPkIbHQRv9SQH7z
wgd6kdZ+8p+lzw==
-----END CERTIFICATE-----
