Certificate:
    Data:
        Version: 3 (0x2)
        Serial Number: 268435667 (0x100000d3)
    Signature Algorithm: sha1WithRSAEncryption
        Issuer: C=DE, ST=Hessen, O=privacyidea, CN=CA001
        Validity
            Not Before: May  9 19:31:16 2016 GMT
            Not After : May  9 19:31:16 2017 GMT
        Subject: C=DE, ST=Hessen, O=privacyidea, CN=requester.localdomain
        Subject Public Key Info:
            Public Key Algorithm: rsaEncryption
                Public-Key: (2048 bit)
                Modulus:
                    00:cd:be:14:4f:fa:ce:01:3f:42:22:1b:1d:9c:af:
                    dd:92:d2:7f:db:6c:b7:3e:39:43:43:6b:13:03:f1:
                    05:f4:07:74:bc:76:69:28:0b:af:19:8e:d7:fc:e3:
                    cd:c6:58:f2:ca:7f:08:6d:53:fc:07:02:44:24:c6:
                    b4:34:4c:8c:04:fe:33:0e:40:e2:20:ba:02:73:5a:
                    f7:f5:4f:63:6e:cc:c6:b6:df:54:1d:37:39:7d:51:
                    36:26:5f:bd:dc:3f:a8:8b:6b:a2:ae:b6:9d:d6:21:
                    e7:df:41:b8:7a:28:2a:68:48:ca:a8:2d:ed:e1:e9:
                    46:5e:5a:72:6d:b4:84:38:87:91:fd:94:11:0b:28:
                    84:c6:c2:2f:2a:fb:01:f9:36:7a:09:75:d1:33:88:
                    3c:73:41:5b:c8:bf:94:89:70:a1:f0:c0:b9:2e:50:
                    53:1e:b1:17:64:69:f4:2d:81:e0:a9:0d:0e:32:e9:
                    ba:55:8a:85:f1:1b:6f:49:79:b4:7f:88:c3:0d:3e:
                    54:88:9b:3d:1f:38:8c:04:f3:ee:6a:63:2b:f5:c6:
                    db:b4:83:aa:c4:78:41:3a:7d:4b:e1:c8:3e:71:ca:
                    1b:61:59:ea:c6:c4:ca:32:5e:c9:e9:bf:12:29:e6:
                    c6:c3:63:fe:a0:55:da:7a:f1:60:98:4d:26:ed:fa:
                    70:2d
                Exponent: 65537 (0x10001)
        X509v3 extensions:
            X509v3 Key Usage: 
                Digital Signature, Key Encipherment
            X509v3 Basic Constraints: 
                CA:FALSE
            Netscape Cert Type: 
                SSL Server
            Netscape Comment: 
                OpenSSL Generated Server Certificate
            X509v3 Subject Key Identifier: 
                53:3F:ED:5D:09:07:B3:65:7B:AB:45:C9:24:5B:09:77:80:0A:96:ED
            X509v3 Authority Key Identifier: 
                keyid:F4:A7:C0:CC:91:46:AF:64:F3:91:F2:27:F8:C8:B2:6F:8A:87:32:73
                DirName:/C=DE/ST=Hessen/O=privacyidea/CN=CA001
                serial:FB:C8:EB:AC:83:CD:12:07

            X509v3 Extended Key Usage: 
                TLS Web Server Authentication
    Signature Algorithm: sha1WithRSAEncryption
         30:b0:cc:8c:9e:23:33:99:74:a6:54:59:4f:e6:b8:b1:84:71:
         a8:94:70:58:64:ff:89:94:03:57:95:09:75:6b:29:eb:c3:95:
         17:68:4f:0b:b0:fa:ff:f8:97:87:7b:b1:05:74:4b:06:d7:58:
         0e:84:d7:10:cf:fd:01:46:dd:74:5e:4a:3a:98:ae:85:a2:b4:
         48:ef:92:c9:e8:22:57:9e:4e:98:98:d3:f3:73:98:24:15:78:
         93:d3:ab:1b:57:bf:55:c3:03:96:68:ba:54:72:ca:ee:96:04:
         2a:e3:ba:00:27:14:99:f4:27:43:53:74:44:7a:ab:d1:76:70:
         b4:96:52:b6:2e:84:3a:87:e9:38:be:33:f3:72:43:ea:59:61:
         41:b4:3e:1f:4c:5b:3a:61:d7:96:e4:c6:dc:9c:33:6c:54:a7:
         c7:eb:60:55:31:f8:6a:38:80:a5:b3:2e:4a:89:ac:7f:ed:3d:
         3d:62:58:c1:70:a1:b8:e2:9a:9c:9d:be:5a:8d:75:93:df:77:
         b1:33:76:38:40:58:21:2b:5a:66:5e:fb:7b:77:6d:49:3d:41:
         d6:17:ae:05:92:f2:62:fa:ee:a7:31:47:e9:9d:57:e5:90:a2:
         3e:15:cf:cb:95:55:22:fa:80:71:49:2e:6b:8f:a5:ae:fe:b8:
         76:3d:7e:96
-----BEGIN CERTIFICATE-----
MIIEJjCCAw6gAwIBAgIEEAAA0zANBgkqhkiG9w0BAQUFADBEMQswCQYDVQQGEwJE
RTEPMA0GA1UECAwGSGVzc2VuMRQwEgYDVQQKDAtwcml2YWN5aWRlYTEOMAwGA1UE
AwwFQ0EwMDEwHhcNMTYwNTA5MTkzMTE2WhcNMTcwNTA5MTkzMTE2WjBUMQswCQYD
VQQGEwJERTEPMA0GA1UECAwGSGVzc2VuMRQwEgYDVQQKDAtwcml2YWN5aWRlYTEe
MBwGA1UEAwwVcmVxdWVzdGVyLmxvY2FsZG9tYWluMIIBIjANBgkqhkiG9w0BAQEF
AAOCAQ8AMIIBCgKCAQEAzb4UT/rOAT9CIhsdnK/dktJ/22y3PjlDQ2sTA/EF9Ad0
vHZpKAuvGY7X/OPNxljyyn8IbVP8BwJEJMa0NEyMBP4zDkDiILoCc1r39U9jbszG
tt9UHTc5fVE2Jl+93D+oi2uirrad1iHn30G4eigqaEjKqC3t4elGXlpybbSEOIeR
/ZQRCyiExsIvKvsB+TZ6CXXRM4g8c0FbyL+UiXCh8MC5LlBTHrEXZGn0LYHgqQ0O
Mum6VYqF8RtvSXm0f4jDDT5UiJs9HziMBPPuamMr9cbbtIOqxHhBOn1L4cg+ccob
YVnqxsTKMl7J6b8SKebGw2P+oFXaevFgmE0m7fpwLQIDAQABo4IBDjCCAQowCwYD
VR0PBAQDAgWgMAkGA1UdEwQCMAAwEQYJYIZIAYb4QgEBBAQDAgZAMDMGCWCGSAGG
+EIBDQQmFiRPcGVuU1NMIEdlbmVyYXRlZCBTZXJ2ZXIgQ2VydGlmaWNhdGUwHQYD
VR0OBBYEFFM/7V0JB7Nle6tFySRbCXeACpbtMHQGA1UdIwRtMGuAFPSnwMyRRq9k
85HyJ/jIsm+KhzJzoUikRjBEMQswCQYDVQQGEwJERTEPMA0GA1UECAwGSGVzc2Vu
MRQwEgYDVQQKDAtwcml2YWN5aWRlYTEOMAwGA1UEAwwFQ0EwMDGCCQD7yOusg80S
BzATBgNVHSUEDDAKBggrBgEFBQcDATANBgkqhkiG9w0BAQUFAAOCAQEAMLDMjJ4j
M5l0plRZT+a4sYRxqJRwWGT/iZQDV5UJdWsp68OVF2hPC7D6//iXh3uxBXRLBtdY
DoTXEM/9AUbddF5KOpiuhaK0SO+SyegiV55OmJjT83OYJBV4k9OrG1e/VcMDlmi6
VHLK7pYEKuO6ACcUmfQnQ1N0RHqr0XZwtJZSti6EOofpOL4z83JD6llhQbQ+H0xb
OmHXluTG3JwzbFSnx+tgVTH4ajiApbMuSomsf+09PWJYwXChuOKanJ2+Wo11k993
sTN2OEBYIStaZl77e3dtST1B1heuBZLyYvrupzFH6Z1X5ZCiPhXPy5VVIvqAcUku
a4+lrv64dj1+lg==
-----END CERTIFICATE-----
