Certificate:
    Data:
        Version: 3 (0x2)
        Serial Number: 268435666 (0x100000d2)
    Signature Algorithm: sha1WithRSAEncryption
        Issuer: C=DE, ST=Hessen, O=privacyidea, CN=CA001
        Validity
            Not Before: May  9 19:28:08 2016 GMT
            Not After : May  9 19:28:08 2017 GMT
        Subject: CN=Steve Test/emailAddress=steve@openssl.org
        Subject Public Key Info:
            Public Key Algorithm: rsaEncryption
                Public-Key: (2048 bit)
                Modulus:
                    00:d2:81:89:20:51:48:0f:73:f4:11:32:24:d5:1f:
                    1c:fd:5c:f5:b6:e6:c5:f0:52:81:dc:d2:af:66:4a:
                    7c:93:31:61:5c:af:d1:6d:06:70:03:60:7c:72:0c:
                    88:dd:49:cd:9e:02:6c:d2:5a:d7:53:0f:f3:da:be:
                    69:64:b5:0f:0c:00:e3:b3:50:47:a3:b3:9b:ba:13:
                    50:d6:58:5a:4b:ab:39:e0:11:ca:0a:27:67:03:78:
                    22:66:6d:92:1e:1b:5c:49:ae:e6:6b:d1:8e:3b:9d:
                    06:d3:c6:ac:4d:53:43:10:ab:e8:96:c1:87:82:97:
                    99:8f:20:d3:99:12:37:31:84:e1:8a:ff:29:03:5f:
                    22:90:3e:7f:9b:e0:20:c1:ad:dc:ae:4c:39:1a:31:
                    96:17:02:8c:b2:d9:b4:0d:20:12:9b:7d:86:54:fd:
                    33:fd:c1:2a:62:46:f8:60:96:cf:6e:01:6f:22:df:
                    13:47:e7:97:ec:05:72:23:a3:62:f8:fa:ef:ac:9c:
                    72:f0:37:cb:2f:37:cf:90:a8:27:51:86:c6:d7:78:
                    08:8f:7e:25:a2:15:70:a2:fb:1c:b6:15:5e:a0:97:
                    8b:81:4c:09:28:8a:27:3b:94:bc:71:db:5b:71:37:
                    9a:2b:16:e0:6f:b5:c9:f5:4b:4f:20:ba:65:cf:af:
                    ad:ad
                Exponent: 65537 (0x10001)
        X509v3 extensions:
            X509v3 Key Usage: 
                Digital Signature, Key Encipherment
            X509v3 Basic Constraints: 
                CA:FALSE
            Netscape Cert Type: 
                SSL Server
            Netscape Comment: 
                OpenSSL Generated Server Certificate
            X509v3 Subject Key Identifier: 
                E5:25:6D:3E:AF:0D:DD:3F:4C:F2:45:19:39:D5:14:DB:7E:9C:C0:AD
            X509v3 Authority Key Identifier: 
                keyid:F4:A7:C0:CC:91:46:AF:64:F3:91:F2:27:F8:C8:B2:6F:8A:87:32:73
                DirName:/C=DE/ST=Hessen/O=privacyidea/CN=CA001
                serial:FB:C8:EB:AC:83:CD:12:07

            X509v3 Extended Key Usage: 
                TLS Web Server Authentication
    Signature Algorithm: sha1WithRSAEncryption
         16:f3:35:a3:f9:cf:bf:ad:f9:65:66:91:14:9a:6f:f7:6b:25:
         0a:66:91:1b:02:1a:2d:33:e9:b6:65:a5:52:64:84:9b:10:a3:
         b2:72:71:48:04:be:64:36:7a:e1:2e:94:28:c9:9b:38:15:6a:
         e6:be:b3:c6:cb:eb:98:bb:6e:d0:77:98:2a:95:2f:78:b2:90:
         88:24:ae:5e:c3:7d:5f:21:bc:d5:84:f2:be:c2:ed:08:11:8f:
         ee:b9:7b:31:4f:58:f0:f6:64:04:bb:b4:6d:69:12:10:89:09:
         72:ec:24:e8:d9:90:c5:7e:2d:bd:bf:4f:c5:95:a7:38:fa:ec:
         2b:ed:6f:42:3b:94:40:fd:ea:04:6d:09:25:32:3e:9b:05:b4:
         87:35:6d:87:18:a5:e6:b2:d3:6e:53:8e:4c:9d:bf:4f:21:70:
         c6:f9:b0:67:03:e2:49:f3:ae:3a:0d:c6:9f:e6:4b:9a:1b:85:
         6c:d4:61:15:20:df:cd:2d:23:cc:79:08:cd:18:73:9a:8a:68:
         95:b7:7c:61:c9:c5:b1:42:98:f2:4b:f5:38:5c:7d:ff:da:62:
         53:00:be:5a:9e:42:69:b2:a5:48:98:74:01:71:13:49:09:25:
         eb:98:24:4c:ef:fb:a8:55:e0:6f:59:b9:40:99:1d:2d:83:c8:
         ac:d8:e3:96
-----BEGIN CERTIFICATE-----
MIIECTCCAvGgAwIBAgIEEAAA0jANBgkqhkiG9w0BAQUFADBEMQswCQYDVQQGEwJE
RTEPMA0GA1UECAwGSGVzc2VuMRQwEgYDVQQKDAtwcml2YWN5aWRlYTEOMAwGA1UE
AwwFQ0EwMDEwHhcNMTYwNTA5MTkyODA4WhcNMTcwNTA5MTkyODA4WjA3MRMwEQYD
VQQDEwpTdGV2ZSBUZXN0MSAwHgYJKoZIhvcNAQkBFhFzdGV2ZUBvcGVuc3NsLm9y
ZzCCASIwDQYJKoZIhvcNAQEBBQADggEPADCCAQoCggEBANKBiSBRSA9z9BEyJNUf
HP1c9bbmxfBSgdzSr2ZKfJMxYVyv0W0GcANgfHIMiN1JzZ4CbNJa11MP89q+aWS1
DwwA47NQR6Ozm7oTUNZYWkurOeARygonZwN4ImZtkh4bXEmu5mvRjjudBtPGrE1T
QxCr6JbBh4KXmY8g05kSNzGE4Yr/KQNfIpA+f5vgIMGt3K5MORoxlhcCjLLZtA0g
Ept9hlT9M/3BKmJG+GCWz24BbyLfE0fnl+wFciOjYvj676yccvA3yy83z5CoJ1GG
xtd4CI9+JaIVcKL7HLYVXqCXi4FMCSiKJzuUvHHbW3E3misW4G+1yfVLTyC6Zc+v
ra0CAwEAAaOCAQ4wggEKMAsGA1UdDwQEAwIFoDAJBgNVHRMEAjAAMBEGCWCGSAGG
+EIBAQQEAwIGQDAzBglghkgBhvhCAQ0EJhYkT3BlblNTTCBHZW5lcmF0ZWQgU2Vy
dmVyIENlcnRpZmljYXRlMB0GA1UdDgQWBBTlJW0+rw3dP0zyRRk51RTbfpzArTB0
BgNVHSMEbTBrgBT0p8DMkUavZPOR8if4yLJviocyc6FIpEYwRDELMAkGA1UEBhMC
REUxDzANBgNVBAgMBkhlc3NlbjEUMBIGA1UECgwLcHJpdmFjeWlkZWExDjAMBgNV
BAMMBUNBMDAxggkA+8jrrIPNEgcwEwYDVR0lBAwwCgYIKwYBBQUHAwEwDQYJKoZI
hvcNAQEFBQADggEBABbzNaP5z7+t+WVmkRSab/drJQpmkRsCGi0z6bZlpVJkhJsQ
o7JycUgEvmQ2euEulCjJmzgVaua+s8bL65i7btB3mCqVL3iykIgkrl7DfV8hvNWE
8r7C7QgRj+65ezFPWPD2ZAS7tG1pEhCJCXLsJOjZkMV+Lb2/T8WVpzj67Cvtb0I7
lED96gRtCSUyPpsFtIc1bYcYpeay025Tjkydv08hcMb5sGcD4knzrjoNxp/mS5ob
hWzUYRUg380tI8x5CM0Yc5qKaJW3fGHJxbFCmPJL9Thcff/aYlMAvlqeQmmypUiY
dAFxE0kJJeuYJEzv+6hV4G9ZuUCZHS2DyKzY45Y=
-----END CERTIFICATE-----
