Certificate:
    Data:
        Version: 3 (0x2)
        Serial Number: 268435672 (0x100000d8)
    Signature Algorithm: sha1WithRSAEncryption
        Issuer: C=DE, ST=Hessen, O=privacyidea, CN=CA001
        Validity
            Not Before: Apr 26 09:06:13 2016 GMT
            Not After : Apr 26 09:06:13 2017 GMT
        Subject: OU=privacyIDEA, CN=root
        Subject Public Key Info:
            Public Key Algorithm: rsaEncryption
                Public-Key: (2048 bit)
                Modulus:
                    00:ba:c2:ab:bc:eb:8b:15:3c:25:59:5a:d4:5d:96:
                    fb:43:ec:36:cc:22:90:79:35:f7:0c:9c:d4:f1:76:
                    bb:04:fb:32:cf:59:ab:61:f3:5b:de:7b:75:9d:c2:
                    bb:8e:7f:d2:8a:0f:35:5e:2e:d1:59:98:db:6c:3e:
                    75:b3:82:a4:a9:57:ee:a8:ea:80:58:7a:f0:86:53:
                    bb:c9:68:1c:9c:d6:ec:63:de:47:14:d6:15:db:f0:
                    77:9b:0c:74:9e:3c:f3:0e:23:c6:e3:54:e1:34:b2:
                    d8:1d:f6:45:b4:ae:d8:bc:1d:a1:86:ec:9b:e8:42:
                    84:06:72:82:47:6e:41:ae:8d:5f:d7:f1:b2:8f:c3:
                    17:d1:f4:0a:b8:05:09:2c:e0:8c:a8:c8:cb:a3:72:
                    c9:3f:71:b7:91:c3:dd:36:6c:46:f4:60:f2:e0:ff:
                    4c:a4:96:a8:96:4e:0c:e4:1c:dc:8a:f7:68:7d:0a:
                    43:2b:cb:53:c5:ce:85:5b:8f:54:49:ce:33:35:e6:
                    2b:c6:5f:d6:90:8b:4c:55:3c:5a:81:72:e7:b6:84:
                    e9:83:2a:6f:d0:ba:1a:d6:96:d1:3a:3f:4b:25:ad:
                    41:58:63:33:7c:1b:d9:5e:98:e7:32:ce:26:b4:0c:
                    30:ed:09:a6:21:d3:4a:bf:52:6a:9d:10:06:13:dc:
                    b0:63
                Exponent: 65537 (0x10001)
        X509v3 extensions:
            X509v3 Key Usage: 
                Digital Signature, Key Encipherment
            X509v3 Basic Constraints: 
                CA:FALSE
            Netscape Cert Type: 
                SSL Server
            Netscape Comment: 
                OpenSSL Generated Server Certificate
            X509v3 Subject Key Identifier: 
                FC:03:6F:32:C7:92:1B:45:A4:C6:9E:7C:53:9B:9A:A0:64:40:9A:26
            X509v3 Authority Key Identifier: 
                keyid:F4:A7:C0:CC:91:46:AF:64:F3:91:F2:27:F8:C8:B2:6F:8A:87:32:73
                DirName:/C=DE/ST=Hessen/O=privacyidea/CN=CA001
                serial:FB:C8:EB:AC:83:CD:12:07

            X509v3 Extended Key Usage: 
                TLS Web Server Authentication
    Signature Algorithm: sha1WithRSAEncryption
         56:65:ef:30:19:3b:05:83:cd:85:c4:ca:b2:5c:f0:d9:10:be:
         f7:f5:7c:b1:0c:6b:2c:df:e7:c1:7b:d3:94:d0:6c:eb:46:53:
         84:27:01:b6:2d:37:5a:12:72:17:b9:2b:6f:b4:95:d5:2c:8f:
         f3:b5:3d:e3:1e:0d:3a:2e:e8:38:d0:a0:64:fa:07:4c:b0:ac:
         c7:10:8f:c4:7d:a7:9a:af:f7:ae:eb:4c:3d:c0:30:58:10:70:
         7e:8a:46:f7:14:5e:c7:11:30:33:a2:36:97:26:96:81:aa:b4:
         1c:7c:d0:35:1e:b3:3e:ea:8e:cc:70:e7:1a:f2:27:4a:41:a1:
         b3:43:85:ad:c0:36:d3:0f:5a:be:30:0f:18:6f:25:34:b2:66:
         f3:67:1d:c7:33:93:3a:42:39:49:be:56:27:1d:74:88:08:10:
         9e:38:4d:7d:b3:c8:ce:88:61:a2:01:d6:06:5b:83:58:b4:a8:
         f9:13:2d:9c:d8:9e:6c:23:23:7e:ef:cc:ab:40:cb:3a:09:be:
         d3:4c:e2:a0:1a:64:d9:e2:a8:6b:0b:f4:92:5b:be:2a:bc:bd:
         2b:7b:70:e5:7f:4a:27:bc:f8:ef:8a:b0:b6:34:21:5d:fa:c9:
         94:5d:af:03:ef:7b:34:cc:3c:fe:01:c7:f0:92:68:69:83:32:
         ca:78:14:df
-----BEGIN CERTIFICATE-----
MIID9zCCAt+gAwIBAgIEEAAA2DANBgkqhkiG9w0BAQUFADBEMQswCQYDVQQGEwJE
RTEPMA0GA1UECAwGSGVzc2VuMRQwEgYDVQQKDAtwcml2YWN5aWRlYTEOMAwGA1UE
AwwFQ0EwMDEwHhcNMTYwNDI2MDkwNjEzWhcNMTcwNDI2MDkwNjEzWjAlMRQwEgYD
VQQLEwtwcml2YWN5SURFQTENMAsGA1UEAxMEcm9vdDCCASIwDQYJKoZIhvcNAQEB
BQADggEPADCCAQoCggEBALrCq7zrixU8JVla1F2W+0PsNswikHk19wyc1PF2uwT7
Ms9Zq2HzW957dZ3Cu45/0ooPNV4u0VmY22w+dbOCpKlX7qjqgFh68IZTu8loHJzW
7GPeRxTWFdvwd5sMdJ488w4jxuNU4TSy2B32RbSu2LwdoYbsm+hChAZygkduQa6N
X9fxso/DF9H0CrgFCSzgjKjIy6NyyT9xt5HD3TZsRvRg8uD/TKSWqJZODOQc3Ir3
aH0KQyvLU8XOhVuPVEnOMzXmK8Zf1pCLTFU8WoFy57aE6YMqb9C6GtaW0To/SyWt
QVhjM3wb2V6Y5zLOJrQMMO0JpiHTSr9Sap0QBhPcsGMCAwEAAaOCAQ4wggEKMAsG
A1UdDwQEAwIFoDAJBgNVHRMEAjAAMBEGCWCGSAGG+EIBAQQEAwIGQDAzBglghkgB
hvhCAQ0EJhYkT3BlblNTTCBHZW5lcmF0ZWQgU2VydmVyIENlcnRpZmljYXRlMB0G
A1UdDgQWBBT8A28yx5IbRaTGnnxTm5qgZECaJjB0BgNVHSMEbTBrgBT0p8DMkUav
ZPOR8if4yLJviocyc6FIpEYwRDELMAkGA1UEBhMCREUxDzANBgNVBAgMBkhlc3Nl
bjEUMBIGA1UECgwLcHJpdmFjeWlkZWExDjAMBgNVBAMMBUNBMDAxggkA+8jrrIPN
EgcwEwYDVR0lBAwwCgYIKwYBBQUHAwEwDQYJKoZIhvcNAQEFBQADggEBAFZl7zAZ
OwWDzYXEyrJc8NkQvvf1fLEMayzf58F705TQbOtGU4QnAbYtN1oSche5K2+0ldUs
j/O1PeMeDTou6DjQoGT6B0ywrMcQj8R9p5qv967rTD3AMFgQcH6KRvcUXscRMDOi
NpcmloGqtBx80DUesz7qjsxw5xryJ0pBobNDha3ANtMPWr4wDxhvJTSyZvNnHccz
kzpCOUm+VicddIgIEJ44TX2zyM6IYaIB1gZbg1i0qPkTLZzYnmwjI37vzKtAyzoJ
vtNM4qAaZNniqGsL9JJbviq8vSt7cOV/Sie8+O+KsLY0IV36yZRdrwPvezTMPP4B
x/CSaGmDMsp4FN8=
-----END CERTIFICATE-----
