Certificate:
    Data:
        Version: 3 (0x2)
        Serial Number: 268435659 (0x100000cb)
    Signature Algorithm: sha1WithRSAEncryption
        Issuer: C=DE, ST=Hessen, O=privacyidea, CN=CA001
        Validity
            Not Before: May 24 13:40:23 2016 GMT
            Not After : May 24 13:40:23 2017 GMT
        Subject: C=DE, ST=Hessen, O=privacyidea, CN=usercert
        Subject Public Key Info:
            Public Key Algorithm: rsaEncryption
                Public-Key: (2048 bit)
                Modulus:
                    00:dc:2f:d1:5f:29:97:d4:7c:c3:53:c8:30:bd:4b:
                    67:70:2c:24:6b:b8:5e:eb:21:7a:48:12:56:7c:81:
                    5c:48:75:b6:68:eb:f6:f2:98:4e:50:51:d1:7f:6c:
                    73:f3:0a:a7:ae:be:48:5e:e5:d6:e1:d9:2a:7c:32:
                    6e:4e:fd:08:f6:5a:54:49:23:73:c3:b9:07:18:d1:
                    ef:b3:ac:f8:8a:dc:94:96:a4:90:3a:8e:74:df:e6:
                    0d:37:1b:bd:5b:b7:25:1a:56:39:da:6f:91:aa:5e:
                    1c:74:f3:f9:7c:14:01:83:12:65:76:c7:bb:fe:36:
                    5b:95:e9:72:65:83:ed:3e:98:30:71:fa:87:dd:a3:
                    36:5a:30:03:2e:26:e0:61:d1:bf:02:3f:b6:06:1f:
                    4a:89:28:1c:5c:a2:ff:4e:be:94:e6:8c:e0:da:82:
                    f1:9d:29:32:48:30:73:b4:04:f6:42:1e:be:f7:e2:
                    32:32:27:3c:9d:89:2f:70:3e:85:9a:6f:5c:c5:09:
                    c0:8c:32:2f:72:22:c9:d2:95:1f:b6:ac:72:60:72:
                    b7:82:4d:6b:ce:5b:e3:00:d0:d2:2f:58:c6:e0:10:
                    e5:51:ca:4d:3b:2e:e6:7e:ab:84:d6:56:f1:93:35:
                    a0:93:64:26:81:75:2f:91:b5:16:06:38:0b:db:cc:
                    2d:07
                Exponent: 65537 (0x10001)
        X509v3 extensions:
            X509v3 Key Usage: 
                Digital Signature, Key Encipherment
            X509v3 Basic Constraints: 
                CA:FALSE
            Netscape Cert Type: 
                SSL Server
            Netscape Comment: 
                OpenSSL Generated Server Certificate
            X509v3 Subject Key Identifier: 
                FC:14:D1:F0:4B:8D:00:90:F2:F5:B8:71:9E:4E:97:C3:92:54:AD:0B
            X509v3 Authority Key Identifier: 
                keyid:F4:A7:C0:CC:91:46:AF:64:F3:91:F2:27:F8:C8:B2:6F:8A:87:32:73
                DirName:/C=DE/ST=Hessen/O=privacyidea/CN=CA001
                serial:FB:C8:EB:AC:83:CD:12:07

            X509v3 Extended Key Usage: 
                TLS Web Server Authentication
    Signature Algorithm: sha1WithRSAEncryption
         77:90:fe:54:32:40:15:92:32:68:63:cb:7a:58:07:ee:94:20:
         e5:31:e2:d5:17:e2:23:fd:b3:63:3e:32:c4:0a:b7:1f:6d:f4:
         25:e2:48:df:5d:5e:ec:93:f1:fd:24:2d:06:96:ea:98:db:ec:
         82:c4:02:9b:96:f3:9f:55:df:d5:9c:8c:cb:b1:64:34:da:ce:
         7f:59:e7:e8:1c:a1:8f:2e:9c:d1:15:77:1f:b7:28:1c:49:69:
         55:dc:83:3a:24:99:88:96:ec:18:a8:75:69:b3:b4:8f:53:87:
         0f:47:51:f2:89:ed:9e:4a:88:63:4e:8c:53:0f:d0:81:72:f2:
         1c:2b:ef:be:ad:22:4d:82:b9:9b:4c:ac:97:aa:f8:a0:85:c0:
         65:f6:c7:54:e0:5e:cb:eb:23:99:ff:44:49:31:48:c4:c0:00:
         1c:20:f6:82:5a:fd:0b:ec:63:f3:e7:1c:31:95:b0:b1:d1:71:
         65:e0:e9:71:b6:a0:64:4f:9f:27:6b:60:6c:3f:e5:e9:2f:40:
         a0:8c:d5:8e:e1:2f:c2:31:71:f2:00:c1:79:d2:cf:44:e1:ad:
         b2:ca:f8:9d:7b:18:bc:95:96:ba:2e:9e:a5:7e:b2:e2:fb:61:
         66:ad:e0:65:4e:ad:5e:9c:4c:be:fc:d2:33:52:ba:a5:f4:d4:
         b2:24:81:3a
-----BEGIN CERTIFICATE-----
MIIEGTCCAwGgAwIBAgIEEAAAyzANBgkqhkiG9w0BAQUFADBEMQswCQYDVQQGEwJE
RTEPMA0GA1UECAwGSGVzc2VuMRQwEgYDVQQKDAtwcml2YWN5aWRlYTEOMAwGA1UE
AwwFQ0EwMDEwHhcNMTYwNTI0MTM0MDIzWhcNMTcwNTI0MTM0MDIzWjBHMQswCQYD
VQQGEwJERTEPMA0GA1UECAwGSGVzc2VuMRQwEgYDVQQKDAtwcml2YWN5aWRlYTER
MA8GA1UEAwwIdXNlcmNlcnQwggEiMA0GCSqGSIb3DQEBAQUAA4IBDwAwggEKAoIB
AQDcL9FfKZfUfMNTyDC9S2dwLCRruF7rIXpIElZ8gVxIdbZo6/bymE5QUdF/bHPz
Cqeuvkhe5dbh2Sp8Mm5O/Qj2WlRJI3PDuQcY0e+zrPiK3JSWpJA6jnTf5g03G71b
tyUaVjnab5GqXhx08/l8FAGDEmV2x7v+NluV6XJlg+0+mDBx+ofdozZaMAMuJuBh
0b8CP7YGH0qJKBxcov9OvpTmjODagvGdKTJIMHO0BPZCHr734jIyJzydiS9wPoWa
b1zFCcCMMi9yIsnSlR+2rHJgcreCTWvOW+MA0NIvWMbgEOVRyk07LuZ+q4TWVvGT
NaCTZCaBdS+RtRYGOAvbzC0HAgMBAAGjggEOMIIBCjALBgNVHQ8EBAMCBaAwCQYD
VR0TBAIwADARBglghkgBhvhCAQEEBAMCBkAwMwYJYIZIAYb4QgENBCYWJE9wZW5T
U0wgR2VuZXJhdGVkIFNlcnZlciBDZXJ0aWZpY2F0ZTAdBgNVHQ4EFgQU/BTR8EuN
AJDy9bhxnk6Xw5JUrQswdAYDVR0jBG0wa4AU9KfAzJFGr2TzkfIn+Miyb4qHMnOh
SKRGMEQxCzAJBgNVBAYTAkRFMQ8wDQYDVQQIDAZIZXNzZW4xFDASBgNVBAoMC3By
aXZhY3lpZGVhMQ4wDAYDVQQDDAVDQTAwMYIJAPvI66yDzRIHMBMGA1UdJQQMMAoG
CCsGAQUFBwMBMA0GCSqGSIb3DQEBBQUAA4IBAQB3kP5UMkAVkjJoY8t6WAfulCDl
MeLVF+Ij/bNjPjLECrcfbfQl4kjfXV7sk/H9JC0GluqY2+yCxAKblvOfVd/VnIzL
sWQ02s5/WefoHKGPLpzRFXcftygcSWlV3IM6JJmIluwYqHVps7SPU4cPR1Hyie2e
SohjToxTD9CBcvIcK+++rSJNgrmbTKyXqvighcBl9sdU4F7L6yOZ/0RJMUjEwAAc
IPaCWv0L7GPz5xwxlbCx0XFl4OlxtqBkT58na2BsP+XpL0CgjNWO4S/CMXHyAMF5
0s9E4a2yyvidexi8lZa6Lp6lfrLi+2FmreBlTq1enEy+/NIzUrql9NSyJIE6
-----END CERTIFICATE-----
